(dp0
S'pointsCBox6'
p1
I0
sS'pointsCBox7'
p2
I0
sS'pointsCBox4'
p3
I10
sS'pointsCBox5'
p4
I2
sS'pointsCBox2'
p5
I6
sS'pointsCBox3'
p6
I8
sS'pointsCBox1'
p7
I4
sS'file1Edit'
p8
csip
_unpickle_type
p9
(S'PyQt4.QtCore'
p10
S'QString'
p11
(VAll Layers
p12
tp13
tp14
Rp15
sS'pointsCBox8'
p16
I0
sS'file7Edit'
p17
g9
(g10
S'QString'
p18
(V
p19
tp20
tp21
Rp22
sS'lineWidthCBox8'
p23
I0
sS'file3Edit'
p24
g9
(g10
S'QString'
p25
(VLogarithmic
p26
tp27
tp28
Rp29
sS'lineWidthCBox7'
p30
I0
sS'lineWidthCBox4'
p31
I1
sS'lineWidthCBox5'
p32
I1
sS'lineWidthCBox2'
p33
I1
sS'lineWidthCBox3'
p34
I1
sS'lineWidthCBox1'
p35
I1
sS'file2Edit'
p36
g9
(g10
S'QString'
p37
(VExponential
p38
tp39
tp40
Rp41
sS'lineColorCBox8'
p42
I0
sS'pointSizeCBox8'
p43
I0
sS'file4Edit'
p44
g9
(g10
S'QString'
p45
(VLinear
p46
tp47
tp48
Rp49
sS'pointSizeCBox3'
p50
I3
sS'pointSizeCBox2'
p51
I3
sS'pointSizeCBox1'
p52
I3
sS'lineColorCBox2'
p53
I3
sS'pointSizeCBox7'
p54
I0
sS'pointSizeCBox6'
p55
I0
sS'pointSizeCBox5'
p56
I3
sS'pointSizeCBox4'
p57
I3
sS'file6Edit'
p58
g9
(g10
S'QString'
p59
(g19
tp60
tp61
Rp62
sS'file5Edit'
p63
g9
(g10
S'QString'
p64
(VBase Layer
p65
tp66
tp67
Rp68
sS'file8Edit'
p69
g9
(g10
S'QString'
p70
(g19
tp71
tp72
Rp73
sS'lineColorCBox1'
p74
I3
sS'lineColorCBox3'
p75
I3
sS'lineColorCBox5'
p76
I3
sS'lineColorCBox4'
p77
I3
sS'lineWidthCBox6'
p78
I0
sS'lineColorCBox7'
p79
I0
sS'lineColorCBox6'
p80
I0
s.