(dp0
S'pointsCBox6'
p1
I0
sS'pointsCBox7'
p2
I0
sS'pointsCBox4'
p3
I0
sS'pointsCBox5'
p4
I0
sS'pointsCBox2'
p5
I0
sS'pointsCBox3'
p6
I0
sS'pointsCBox1'
p7
I0
sS'file1Edit'
p8
csip
_unpickle_type
p9
(S'PyQt4.QtCore'
p10
S'QString'
p11
(V
p12
tp13
tp14
Rp15
sS'pointsCBox8'
p16
I0
sS'file7Edit'
p17
g9
(g10
S'QString'
p18
(g12
tp19
tp20
Rp21
sS'lineWidthCBox8'
p22
I0
sS'file3Edit'
p23
g9
(g10
S'QString'
p24
(g12
tp25
tp26
Rp27
sS'lineWidthCBox7'
p28
I0
sS'lineWidthCBox4'
p29
I0
sS'lineWidthCBox5'
p30
I0
sS'lineWidthCBox2'
p31
I0
sS'lineWidthCBox3'
p32
I0
sS'lineWidthCBox1'
p33
I0
sS'file2Edit'
p34
g9
(g10
S'QString'
p35
(g12
tp36
tp37
Rp38
sS'lineColorCBox8'
p39
I0
sS'pointSizeCBox8'
p40
I0
sS'file4Edit'
p41
g9
(g10
S'QString'
p42
(g12
tp43
tp44
Rp45
sS'pointSizeCBox3'
p46
I0
sS'pointSizeCBox2'
p47
I0
sS'pointSizeCBox1'
p48
I0
sS'lineColorCBox2'
p49
I0
sS'pointSizeCBox7'
p50
I0
sS'pointSizeCBox6'
p51
I0
sS'pointSizeCBox5'
p52
I0
sS'pointSizeCBox4'
p53
I0
sS'file6Edit'
p54
g9
(g10
S'QString'
p55
(g12
tp56
tp57
Rp58
sS'file5Edit'
p59
g9
(g10
S'QString'
p60
(g12
tp61
tp62
Rp63
sS'file8Edit'
p64
g9
(g10
S'QString'
p65
(g12
tp66
tp67
Rp68
sS'lineColorCBox1'
p69
I0
sS'lineColorCBox3'
p70
I0
sS'lineColorCBox5'
p71
I0
sS'lineColorCBox4'
p72
I0
sS'lineWidthCBox6'
p73
I0
sS'lineColorCBox7'
p74
I0
sS'lineColorCBox6'
p75
I0
s.