(dp0
S'pointsCBox6'
p1
I8
sS'pointsCBox7'
p2
I0
sS'pointsCBox4'
p3
I2
sS'pointsCBox5'
p4
I6
sS'pointsCBox2'
p5
I6
sS'pointsCBox3'
p6
I8
sS'pointsCBox1'
p7
I4
sS'file1Edit'
p8
S'Dropped Three Layers'
p9
sS'pointsCBox8'
p10
I0
sS'file7Edit'
p11
S''
p12
sS'lineWidthCBox8'
p13
S'2'
p14
sS'file3Edit'
p15
S'Dropped One Layer'
p16
sS'lineWidthCBox7'
p17
g14
sS'lineWidthCBox4'
p18
g14
sS'lineWidthCBox5'
p19
g14
sS'lineWidthCBox2'
p20
g14
sS'lineWidthCBox3'
p21
g14
sS'lineWidthCBox1'
p22
g14
sS'file2Edit'
p23
S'Dropped Two Layers'
p24
sS'lineColorCBox8'
p25
I5
sS'pointSizeCBox8'
p26
S'1.75'
p27
sS'file4Edit'
p28
S'Whole Video'
p29
sS'pointSizeCBox3'
p30
S'1.75'
p31
sS'pointSizeCBox2'
p32
S'1.75'
p33
sS'pointSizeCBox1'
p34
S'1.75'
p35
sS'lineColorCBox2'
p36
I5
sS'pointSizeCBox7'
p37
S'1.75'
p38
sS'pointSizeCBox6'
p39
S'1.75'
p40
sS'pointSizeCBox5'
p41
S'1.75'
p42
sS'pointSizeCBox4'
p43
S'1.75'
p44
sS'file6Edit'
p45
g12
sS'file5Edit'
p46
g12
sS'file8Edit'
p47
g12
sS'lineColorCBox1'
p48
I5
sS'lineColorCBox3'
p49
I5
sS'lineColorCBox5'
p50
I1
sS'lineColorCBox4'
p51
I5
sS'lineWidthCBox6'
p52
g14
sS'lineColorCBox7'
p53
I3
sS'lineColorCBox6'
p54
I1
s.