(dp0
S'pointsCBox6'
p1
I0
sS'pointsCBox7'
p2
I0
sS'pointsCBox4'
p3
I0
sS'pointsCBox5'
p4
I0
sS'pointsCBox2'
p5
I0
sS'pointsCBox3'
p6
I0
sS'pointsCBox1'
p7
I0
sS'file1Edit'
p8
csip
_unpickle_type
p9
(S'PyQt4.QtCore'
p10
S'QString'
p11
(Vf
p12
tp13
tp14
Rp15
sS'pointsCBox8'
p16
I0
sS'file7Edit'
p17
g9
(g10
S'QString'
p18
(V
p19
tp20
tp21
Rp22
sS'lineWidthCBox8'
p23
I0
sS'file3Edit'
p24
g9
(g10
S'QString'
p25
(Vd
p26
tp27
tp28
Rp29
sS'lineWidthCBox7'
p30
I0
sS'lineWidthCBox4'
p31
I0
sS'lineWidthCBox5'
p32
I0
sS'lineWidthCBox2'
p33
I0
sS'lineWidthCBox3'
p34
I0
sS'lineWidthCBox1'
p35
I0
sS'file2Edit'
p36
g9
(g10
S'QString'
p37
(Vs
p38
tp39
tp40
Rp41
sS'lineColorCBox8'
p42
I0
sS'pointSizeCBox8'
p43
I0
sS'file4Edit'
p44
g9
(g10
S'QString'
p45
(g19
tp46
tp47
Rp48
sS'pointSizeCBox3'
p49
I0
sS'pointSizeCBox2'
p50
I0
sS'pointSizeCBox1'
p51
I0
sS'lineColorCBox2'
p52
I0
sS'pointSizeCBox7'
p53
I0
sS'pointSizeCBox6'
p54
I0
sS'pointSizeCBox5'
p55
I0
sS'pointSizeCBox4'
p56
I0
sS'file6Edit'
p57
g9
(g10
S'QString'
p58
(g19
tp59
tp60
Rp61
sS'file5Edit'
p62
g9
(g10
S'QString'
p63
(g19
tp64
tp65
Rp66
sS'file8Edit'
p67
g9
(g10
S'QString'
p68
(g19
tp69
tp70
Rp71
sS'lineColorCBox1'
p72
I0
sS'lineColorCBox3'
p73
I0
sS'lineColorCBox5'
p74
I0
sS'lineColorCBox4'
p75
I0
sS'lineWidthCBox6'
p76
I0
sS'lineColorCBox7'
p77
I0
sS'lineColorCBox6'
p78
I0
s.