(dp0
S'test_0081'
p1
(dp2
S'params'
p3
(dp4
S'SV_NUM_MA_VALUES'
p5
csip
_unpickle_type
p6
(S'PyQt4.QtCore'
p7
S'QString'
p8
(V5
p9
tp10
tp11
Rp12
sS'NUM_PREFERRED_ONU'
p13
g6
(g7
S'QString'
p14
(V0
p15
tp16
tp17
Rp18
sS'PREDICTION_TYPE'
p19
S'FFBI'
p20
sS'SCHEDULER_SLOT_SIZE'
p21
g6
(g7
S'QString'
p22
(V64
p23
tp24
tp25
Rp26
sS'START_LAMBDA'
p27
g6
(g7
S'QString'
p28
(V1
p29
tp30
tp31
Rp32
sS'LOAD_INCR'
p33
g6
(g7
S'QString'
p34
(V0.1
p35
tp36
tp37
Rp38
sS'OLT_TYPE'
p39
S'OLT_ONLINE_NASC'
p40
sS'SIM_TIME'
p41
g6
(g7
S'QString'
p42
(V300
p43
tp44
tp45
Rp46
sS'SV_DROP_SENSITIVITY'
p47
g6
(g7
S'QString'
p48
(V1.0
p49
tp50
tp51
Rp52
sS'MAX_GRANT_SIZE'
p53
g6
(g7
S'QString'
p54
(V156876
p55
tp56
tp57
Rp58
sS'MAX_PROP_DELAY'
p59
g6
(g7
S'QString'
p60
(V50e-6
p61
tp62
tp63
Rp64
sS'SCALABLE_VIDEO_TRAFFIC'
p65
S'SCALABLE_VIDEO_ON'
p66
sS'SV_MIN_BOUND'
p67
g6
(g7
S'QString'
p68
(V0.0005
p69
tp70
tp71
Rp72
sS'SV_MAX_BOUND'
p73
g6
(g7
S'QString'
p74
(V0.005
p75
tp76
tp77
Rp78
sS'FIXED_GRANT_SIZE'
p79
g6
(g7
S'QString'
p80
(V156876
p81
tp82
tp83
Rp84
sS'VIDEO_DBA_TYPE'
p85
S'VIDEO_DBA_LIMITED_GATE'
p86
sS'GUARD_TIME'
p87
g6
(g7
S'QString'
p88
(V1e-6
p89
tp90
tp91
Rp92
sS'TUNING_TIME'
p93
g6
(g7
S'QString'
p94
(V5e-3
p95
tp96
tp97
Rp98
sS'SIM_TRACE'
p99
S'SIM_TRACE_OFF'
p100
sS'LINK_SPEED'
p101
g6
(g7
S'QString'
p102
(V1e9
p103
tp104
tp105
Rp106
sS'END_LAMBDA'
p107
g6
(g7
S'QString'
p108
(V1
p109
tp110
tp111
Rp112
sS'VIDEO_TRAFFIC'
p113
S'VIDEO_TRAFFIC_ON'
p114
sS'SCHEDULER_NUM_SLOT'
p115
g6
(g7
S'QString'
p116
(V180
p117
tp118
tp119
Rp120
sS'SV_DROP_LAYER_THRESHOLD'
p121
g6
(g7
S'QString'
p122
(V4
p123
tp124
tp125
Rp126
sS'NUM_RUNS'
p127
g6
(g7
S'QString'
p128
(V1
p129
tp130
tp131
Rp132
sS'VIDEO_PREDICTION'
p133
S'VIDEO_PREDICTION_OFF'
p134
sS'HEAVY_LOAD'
p135
g6
(g7
S'QString'
p136
(V2
p137
tp138
tp139
Rp140
sS'NUM_LH_WDM_ONU'
p141
g6
(g7
S'QString'
p142
(V0
p143
tp144
tp145
Rp146
sS'NUM_UH_WDM_ONU'
p147
g6
(g7
S'QString'
p148
(V0
p149
tp150
tp151
Rp152
sS'DBA_TYPE'
p153
S'DBA_LIMITED_GATE'
p154
sS'SCALABLE_VIDEO_DROPPING_ALGORITHM'
p155
S'SCALABLE_VIDEO_DROPPING_THRESHOLD'
p156
sS'SCHEDULER_MAX_WINDOW'
p157
S'0'
p158
sS'GET_TAIL'
p159
S'GET_TAIL_OFF'
p160
sS'VIDEO_TRACE_FILE'
p161
g6
(g7
S'QString'
p162
(V/home/admin1/scvid/Traces/A_TestFile_30fps_MGS_6EL.txt
p163
tp164
tp165
Rp166
sS'FIXED_PROP_DELAY'
p167
S'FIXED_PROP_DELAY_OFF'
p168
sS'NUM_WDM_ONU'
p169
g6
(g7
S'QString'
p170
(V0
p171
tp172
tp173
Rp174
sS'TRAFFIC_TYPE'
p175
S'TRAFFIC_POISSON'
p176
sS'GRANT_TRACE'
p177
S'GRANT_TRACE_OFF'
p178
sS'STARVE_THRESH'
p179
g6
(g7
S'QString'
p180
(V64
p181
tp182
tp183
Rp184
sS'VIDEO_RANDOM_START'
p185
S'VIDEO_RANDOM_START_OFF'
p186
sS'AVAIL_COST_WEIGHT'
p187
g6
(g7
S'QString'
p188
(V1.0
p189
tp190
tp191
Rp192
sS'TIME_SHIFT'
p193
S'0.0'
p194
sS'WDM_TYPE'
p195
S'WDM_FIXED'
p196
sS'NUM_HEAVY_ONU'
p197
g6
(g7
S'QString'
p198
(V0
p199
tp200
tp201
Rp202
sS'NUM_SS_STREAMS'
p203
g6
(g7
S'QString'
p204
(V32
p205
tp206
tp207
Rp208
sS'NUM_ONU'
p209
g6
(g7
S'QString'
p210
(V32
p211
tp212
tp213
Rp214
sS'START_LOAD'
p215
g6
(g7
S'QString'
p216
(V0.1
p217
tp218
tp219
Rp220
sS'FIXED_PROP_DELAY_VALUE'
p221
g6
(g7
S'QString'
p222
(V50e-6
p223
tp224
tp225
Rp226
sS'END_LOAD'
p227
g6
(g7
S'QString'
p228
(V0.9
p229
tp230
tp231
Rp232
sS'SS_HURST_PARAM'
p233
g6
(g7
S'QString'
p234
(V0.75
p235
tp236
tp237
Rp238
sS'FRAME_RATE'
p239
g6
(g7
S'QString'
p240
(V30.0
p241
tp242
tp243
Rp244
sS'simID'
p245
g6
(g7
S'QString'
p246
(Vtest_0081
p247
tp248
tp249
Rp250
ssS'host'
p251
S'localhost'
p252
sS'pid'
p253
I3241
ssS'test_0076'
p254
(dp255
S'pid'
p256
I32394
sS'host'
p257
S'localhost'
p258
sS'params'
p259
(dp260
S'SV_NUM_MA_VALUES'
p261
g6
(g7
S'QString'
p262
(V5
p263
tp264
tp265
Rp266
sS'NUM_PREFERRED_ONU'
p267
g6
(g7
S'QString'
p268
(V0
p269
tp270
tp271
Rp272
sS'PREDICTION_TYPE'
p273
S'FFBI'
p274
sS'SCHEDULER_SLOT_SIZE'
p275
g6
(g7
S'QString'
p276
(V64
p277
tp278
tp279
Rp280
sS'START_LAMBDA'
p281
g6
(g7
S'QString'
p282
(V1
p283
tp284
tp285
Rp286
sS'START_LOAD'
p287
g6
(g7
S'QString'
p288
(V0.1
p289
tp290
tp291
Rp292
sS'LOAD_INCR'
p293
g6
(g7
S'QString'
p294
(V0.1
p295
tp296
tp297
Rp298
sS'OLT_TYPE'
p299
S'OLT_IPACT_PSF'
p300
sS'SIM_TIME'
p301
g6
(g7
S'QString'
p302
(V300
p303
tp304
tp305
Rp306
sS'SV_DROP_SENSITIVITY'
p307
g6
(g7
S'QString'
p308
(V1.0
p309
tp310
tp311
Rp312
sS'MAX_GRANT_SIZE'
p313
g6
(g7
S'QString'
p314
(V156876
p315
tp316
tp317
Rp318
sS'MAX_PROP_DELAY'
p319
g6
(g7
S'QString'
p320
(V50e-6
p321
tp322
tp323
Rp324
sS'SCALABLE_VIDEO_TRAFFIC'
p325
S'SCALABLE_VIDEO_ON'
p326
sS'SV_MIN_BOUND'
p327
g6
(g7
S'QString'
p328
(V0.0005
p329
tp330
tp331
Rp332
sS'SV_MAX_BOUND'
p333
g6
(g7
S'QString'
p334
(V0.005
p335
tp336
tp337
Rp338
sS'FIXED_GRANT_SIZE'
p339
g6
(g7
S'QString'
p340
(V156876
p341
tp342
tp343
Rp344
sS'VIDEO_DBA_TYPE'
p345
S'VIDEO_DBA_LIMITED_GATE'
p346
sS'GUARD_TIME'
p347
g6
(g7
S'QString'
p348
(V1e-6
p349
tp350
tp351
Rp352
sS'TUNING_TIME'
p353
g6
(g7
S'QString'
p354
(V5e-3
p355
tp356
tp357
Rp358
sS'END_LOAD'
p359
g6
(g7
S'QString'
p360
(V0.9
p361
tp362
tp363
Rp364
sS'LINK_SPEED'
p365
g6
(g7
S'QString'
p366
(V1e9
p367
tp368
tp369
Rp370
sS'END_LAMBDA'
p371
g6
(g7
S'QString'
p372
(V1
p373
tp374
tp375
Rp376
sS'SCHEDULER_NUM_SLOT'
p377
g6
(g7
S'QString'
p378
(V180
p379
tp380
tp381
Rp382
sS'SV_DROP_LAYER_THRESHOLD'
p383
g6
(g7
S'QString'
p384
(V4
p385
tp386
tp387
Rp388
sS'NUM_RUNS'
p389
g6
(g7
S'QString'
p390
(V1
p391
tp392
tp393
Rp394
sS'VIDEO_PREDICTION'
p395
S'VIDEO_PREDICTION_OFF'
p396
sS'HEAVY_LOAD'
p397
g6
(g7
S'QString'
p398
(V2
p399
tp400
tp401
Rp402
sS'NUM_LH_WDM_ONU'
p403
g6
(g7
S'QString'
p404
(V0
p405
tp406
tp407
Rp408
sS'NUM_UH_WDM_ONU'
p409
g6
(g7
S'QString'
p410
(V0
p411
tp412
tp413
Rp414
sS'DBA_TYPE'
p415
S'DBA_LIMITED_GATE'
p416
sS'SCALABLE_VIDEO_DROPPING_ALGORITHM'
p417
S'SCALABLE_VIDEO_DROPPING_THRESHOLD'
p418
sS'SCHEDULER_MAX_WINDOW'
p419
S'0'
p420
sS'GET_TAIL'
p421
S'GET_TAIL_OFF'
p422
sS'VIDEO_TRACE_FILE'
p423
g6
(g7
S'QString'
p424
(V/home/admin1/scvid/Traces/A_TestFile_30fps_MGS_6EL.txt
p425
tp426
tp427
Rp428
sS'FIXED_PROP_DELAY'
p429
S'FIXED_PROP_DELAY_OFF'
p430
sS'NUM_WDM_ONU'
p431
g6
(g7
S'QString'
p432
(V0
p433
tp434
tp435
Rp436
sS'TRAFFIC_TYPE'
p437
S'TRAFFIC_POISSON'
p438
sS'GRANT_TRACE'
p439
S'GRANT_TRACE_OFF'
p440
sS'STARVE_THRESH'
p441
g6
(g7
S'QString'
p442
(V64
p443
tp444
tp445
Rp446
sS'VIDEO_RANDOM_START'
p447
S'VIDEO_RANDOM_START_OFF'
p448
sS'AVAIL_COST_WEIGHT'
p449
g6
(g7
S'QString'
p450
(V1.0
p451
tp452
tp453
Rp454
sS'TIME_SHIFT'
p455
S'0.0'
p456
sS'WDM_TYPE'
p457
S'WDM_FIXED'
p458
sS'NUM_HEAVY_ONU'
p459
g6
(g7
S'QString'
p460
(V0
p461
tp462
tp463
Rp464
sS'NUM_SS_STREAMS'
p465
g6
(g7
S'QString'
p466
(V32
p467
tp468
tp469
Rp470
sS'NUM_ONU'
p471
g6
(g7
S'QString'
p472
(V32
p473
tp474
tp475
Rp476
sS'VIDEO_TRAFFIC'
p477
S'VIDEO_TRAFFIC_ON'
p478
sS'FIXED_PROP_DELAY_VALUE'
p479
g6
(g7
S'QString'
p480
(V50e-6
p481
tp482
tp483
Rp484
sS'SIM_TRACE'
p485
S'SIM_TRACE_OFF'
p486
sS'SS_HURST_PARAM'
p487
g6
(g7
S'QString'
p488
(V0.75
p489
tp490
tp491
Rp492
sS'FRAME_RATE'
p493
g6
(g7
S'QString'
p494
(V30.0
p495
tp496
tp497
Rp498
sS'simID'
p499
g6
(g7
S'QString'
p500
(Vtest_0076
p501
tp502
tp503
Rp504
sssS'test_0075'
p505
(dp506
S'params'
p507
(dp508
S'SV_NUM_MA_VALUES'
p509
g6
(g7
S'QString'
p510
(V5
p511
tp512
tp513
Rp514
sS'NUM_PREFERRED_ONU'
p515
g6
(g7
S'QString'
p516
(V0
p517
tp518
tp519
Rp520
sS'PREDICTION_TYPE'
p521
S'FFBI'
p522
sS'SCHEDULER_SLOT_SIZE'
p523
g6
(g7
S'QString'
p524
(V64
p525
tp526
tp527
Rp528
sS'START_LAMBDA'
p529
g6
(g7
S'QString'
p530
(V1
p531
tp532
tp533
Rp534
sS'LOAD_INCR'
p535
g6
(g7
S'QString'
p536
(V0.1
p537
tp538
tp539
Rp540
sS'OLT_TYPE'
p541
S'OLT_IPACT_PSF'
p542
sS'SIM_TIME'
p543
g6
(g7
S'QString'
p544
(V300
p545
tp546
tp547
Rp548
sS'SV_DROP_SENSITIVITY'
p549
g6
(g7
S'QString'
p550
(V1.0
p551
tp552
tp553
Rp554
sS'MAX_GRANT_SIZE'
p555
g6
(g7
S'QString'
p556
(V156876
p557
tp558
tp559
Rp560
sS'MAX_PROP_DELAY'
p561
g6
(g7
S'QString'
p562
(V50e-6
p563
tp564
tp565
Rp566
sS'SCALABLE_VIDEO_TRAFFIC'
p567
S'SCALABLE_VIDEO_ON'
p568
sS'SV_MIN_BOUND'
p569
g6
(g7
S'QString'
p570
(V0.0005
p571
tp572
tp573
Rp574
sS'SV_MAX_BOUND'
p575
g6
(g7
S'QString'
p576
(V0.005
p577
tp578
tp579
Rp580
sS'FIXED_GRANT_SIZE'
p581
g6
(g7
S'QString'
p582
(V156876
p583
tp584
tp585
Rp586
sS'VIDEO_DBA_TYPE'
p587
S'VIDEO_DBA_LIMITED_GATE'
p588
sS'GUARD_TIME'
p589
g6
(g7
S'QString'
p590
(V1e-6
p591
tp592
tp593
Rp594
sS'TUNING_TIME'
p595
g6
(g7
S'QString'
p596
(V5e-3
p597
tp598
tp599
Rp600
sS'SIM_TRACE'
p601
S'SIM_TRACE_OFF'
p602
sS'LINK_SPEED'
p603
g6
(g7
S'QString'
p604
(V1e9
p605
tp606
tp607
Rp608
sS'END_LAMBDA'
p609
g6
(g7
S'QString'
p610
(V1
p611
tp612
tp613
Rp614
sS'VIDEO_TRAFFIC'
p615
S'VIDEO_TRAFFIC_ON'
p616
sS'SCHEDULER_NUM_SLOT'
p617
g6
(g7
S'QString'
p618
(V180
p619
tp620
tp621
Rp622
sS'SV_DROP_LAYER_THRESHOLD'
p623
g6
(g7
S'QString'
p624
(V4
p625
tp626
tp627
Rp628
sS'NUM_RUNS'
p629
g6
(g7
S'QString'
p630
(V1
p631
tp632
tp633
Rp634
sS'VIDEO_PREDICTION'
p635
S'VIDEO_PREDICTION_OFF'
p636
sS'HEAVY_LOAD'
p637
g6
(g7
S'QString'
p638
(V2
p639
tp640
tp641
Rp642
sS'NUM_LH_WDM_ONU'
p643
g6
(g7
S'QString'
p644
(V0
p645
tp646
tp647
Rp648
sS'NUM_UH_WDM_ONU'
p649
g6
(g7
S'QString'
p650
(V0
p651
tp652
tp653
Rp654
sS'DBA_TYPE'
p655
S'DBA_LIMITED_GATE'
p656
sS'SCALABLE_VIDEO_DROPPING_ALGORITHM'
p657
S'SCALABLE_VIDEO_DROPPING_THRESHOLD'
p658
sS'SCHEDULER_MAX_WINDOW'
p659
S'0'
p660
sS'GET_TAIL'
p661
S'GET_TAIL_OFF'
p662
sS'VIDEO_TRACE_FILE'
p663
g6
(g7
S'QString'
p664
(V/home/admin1/scvid/Traces/A_TestFile_30fps_MGS_6EL.txt
p665
tp666
tp667
Rp668
sS'FIXED_PROP_DELAY'
p669
S'FIXED_PROP_DELAY_OFF'
p670
sS'NUM_WDM_ONU'
p671
g6
(g7
S'QString'
p672
(V0
p673
tp674
tp675
Rp676
sS'TRAFFIC_TYPE'
p677
S'TRAFFIC_POISSON'
p678
sS'GRANT_TRACE'
p679
S'GRANT_TRACE_OFF'
p680
sS'STARVE_THRESH'
p681
g6
(g7
S'QString'
p682
(V64
p683
tp684
tp685
Rp686
sS'VIDEO_RANDOM_START'
p687
S'VIDEO_RANDOM_START_OFF'
p688
sS'AVAIL_COST_WEIGHT'
p689
g6
(g7
S'QString'
p690
(V1.0
p691
tp692
tp693
Rp694
sS'TIME_SHIFT'
p695
S'0.0'
p696
sS'WDM_TYPE'
p697
S'WDM_FIXED'
p698
sS'NUM_HEAVY_ONU'
p699
g6
(g7
S'QString'
p700
(V0
p701
tp702
tp703
Rp704
sS'NUM_SS_STREAMS'
p705
g6
(g7
S'QString'
p706
(V32
p707
tp708
tp709
Rp710
sS'NUM_ONU'
p711
g6
(g7
S'QString'
p712
(V32
p713
tp714
tp715
Rp716
sS'START_LOAD'
p717
g6
(g7
S'QString'
p718
(V0.1
p719
tp720
tp721
Rp722
sS'FIXED_PROP_DELAY_VALUE'
p723
g6
(g7
S'QString'
p724
(V50e-6
p725
tp726
tp727
Rp728
sS'END_LOAD'
p729
g6
(g7
S'QString'
p730
(V0.9
p731
tp732
tp733
Rp734
sS'SS_HURST_PARAM'
p735
g6
(g7
S'QString'
p736
(V0.75
p737
tp738
tp739
Rp740
sS'FRAME_RATE'
p741
g6
(g7
S'QString'
p742
(V30.0
p743
tp744
tp745
Rp746
sS'simID'
p747
g6
(g7
S'QString'
p748
(Vtest_0075
p749
tp750
tp751
Rp752
ssS'host'
p753
S'localhost'
p754
sS'pid'
p755
I30683
ssS'test_0074'
p756
(dp757
S'pid'
p758
I30683
sS'host'
p759
S'localhost'
p760
sS'params'
p761
(dp762
S'SV_NUM_MA_VALUES'
p763
g6
(g7
S'QString'
p764
(V5
p765
tp766
tp767
Rp768
sS'NUM_PREFERRED_ONU'
p769
g6
(g7
S'QString'
p770
(V0
p771
tp772
tp773
Rp774
sS'PREDICTION_TYPE'
p775
S'FFBI'
p776
sS'SCHEDULER_SLOT_SIZE'
p777
g6
(g7
S'QString'
p778
(V64
p779
tp780
tp781
Rp782
sS'START_LAMBDA'
p783
g6
(g7
S'QString'
p784
(V1
p785
tp786
tp787
Rp788
sS'START_LOAD'
p789
g6
(g7
S'QString'
p790
(V0.1
p791
tp792
tp793
Rp794
sS'LOAD_INCR'
p795
g6
(g7
S'QString'
p796
(V0.1
p797
tp798
tp799
Rp800
sS'OLT_TYPE'
p801
S'OLT_IPACT_PSF'
p802
sS'SIM_TIME'
p803
g6
(g7
S'QString'
p804
(V300
p805
tp806
tp807
Rp808
sS'SV_DROP_SENSITIVITY'
p809
g6
(g7
S'QString'
p810
(V1.0
p811
tp812
tp813
Rp814
sS'MAX_GRANT_SIZE'
p815
g6
(g7
S'QString'
p816
(V156876
p817
tp818
tp819
Rp820
sS'MAX_PROP_DELAY'
p821
g6
(g7
S'QString'
p822
(V50e-6
p823
tp824
tp825
Rp826
sS'SCALABLE_VIDEO_TRAFFIC'
p827
S'SCALABLE_VIDEO_ON'
p828
sS'SV_MIN_BOUND'
p829
g6
(g7
S'QString'
p830
(V0.0005
p831
tp832
tp833
Rp834
sS'SV_MAX_BOUND'
p835
g6
(g7
S'QString'
p836
(V0.005
p837
tp838
tp839
Rp840
sS'FIXED_GRANT_SIZE'
p841
g6
(g7
S'QString'
p842
(V156876
p843
tp844
tp845
Rp846
sS'VIDEO_DBA_TYPE'
p847
S'VIDEO_DBA_LIMITED_GATE'
p848
sS'GUARD_TIME'
p849
g6
(g7
S'QString'
p850
(V1e-6
p851
tp852
tp853
Rp854
sS'TUNING_TIME'
p855
g6
(g7
S'QString'
p856
(V5e-3
p857
tp858
tp859
Rp860
sS'END_LOAD'
p861
g6
(g7
S'QString'
p862
(V0.9
p863
tp864
tp865
Rp866
sS'LINK_SPEED'
p867
g6
(g7
S'QString'
p868
(V1e9
p869
tp870
tp871
Rp872
sS'END_LAMBDA'
p873
g6
(g7
S'QString'
p874
(V1
p875
tp876
tp877
Rp878
sS'SCHEDULER_NUM_SLOT'
p879
g6
(g7
S'QString'
p880
(V180
p881
tp882
tp883
Rp884
sS'SV_DROP_LAYER_THRESHOLD'
p885
g6
(g7
S'QString'
p886
(V4
p887
tp888
tp889
Rp890
sS'NUM_RUNS'
p891
g6
(g7
S'QString'
p892
(V1
p893
tp894
tp895
Rp896
sS'VIDEO_PREDICTION'
p897
S'VIDEO_PREDICTION_OFF'
p898
sS'HEAVY_LOAD'
p899
g6
(g7
S'QString'
p900
(V2
p901
tp902
tp903
Rp904
sS'NUM_LH_WDM_ONU'
p905
g6
(g7
S'QString'
p906
(V0
p907
tp908
tp909
Rp910
sS'NUM_UH_WDM_ONU'
p911
g6
(g7
S'QString'
p912
(V0
p913
tp914
tp915
Rp916
sS'DBA_TYPE'
p917
S'DBA_LIMITED_GATE'
p918
sS'SCALABLE_VIDEO_DROPPING_ALGORITHM'
p919
S'SCALABLE_VIDEO_DROPPING_THRESHOLD'
p920
sS'SCHEDULER_MAX_WINDOW'
p921
S'0'
p922
sS'GET_TAIL'
p923
S'GET_TAIL_OFF'
p924
sS'VIDEO_TRACE_FILE'
p925
g6
(g7
S'QString'
p926
(V/home/admin1/scvid/Traces/A_TestFile_30fps_MGS_6EL.txt
p927
tp928
tp929
Rp930
sS'FIXED_PROP_DELAY'
p931
S'FIXED_PROP_DELAY_OFF'
p932
sS'NUM_WDM_ONU'
p933
g6
(g7
S'QString'
p934
(V0
p935
tp936
tp937
Rp938
sS'TRAFFIC_TYPE'
p939
S'TRAFFIC_POISSON'
p940
sS'GRANT_TRACE'
p941
S'GRANT_TRACE_OFF'
p942
sS'STARVE_THRESH'
p943
g6
(g7
S'QString'
p944
(V64
p945
tp946
tp947
Rp948
sS'VIDEO_RANDOM_START'
p949
S'VIDEO_RANDOM_START_OFF'
p950
sS'AVAIL_COST_WEIGHT'
p951
g6
(g7
S'QString'
p952
(V1.0
p953
tp954
tp955
Rp956
sS'TIME_SHIFT'
p957
S'0.0'
p958
sS'WDM_TYPE'
p959
S'WDM_FIXED'
p960
sS'NUM_HEAVY_ONU'
p961
g6
(g7
S'QString'
p962
(V0
p963
tp964
tp965
Rp966
sS'NUM_SS_STREAMS'
p967
g6
(g7
S'QString'
p968
(V32
p969
tp970
tp971
Rp972
sS'NUM_ONU'
p973
g6
(g7
S'QString'
p974
(V32
p975
tp976
tp977
Rp978
sS'VIDEO_TRAFFIC'
p979
S'VIDEO_TRAFFIC_ON'
p980
sS'FIXED_PROP_DELAY_VALUE'
p981
g6
(g7
S'QString'
p982
(V50e-6
p983
tp984
tp985
Rp986
sS'SIM_TRACE'
p987
S'SIM_TRACE_OFF'
p988
sS'SS_HURST_PARAM'
p989
g6
(g7
S'QString'
p990
(V0.75
p991
tp992
tp993
Rp994
sS'FRAME_RATE'
p995
g6
(g7
S'QString'
p996
(V30.0
p997
tp998
tp999
Rp1000
sS'simID'
p1001
g6
(g7
S'QString'
p1002
(Vtest_0074
p1003
tp1004
tp1005
Rp1006
sssS'test_0091'
p1007
(dp1008
S'pid'
p1009
I9797
sS'host'
p1010
S'localhost'
p1011
sS'params'
p1012
(dp1013
S'SV_NUM_MA_VALUES'
p1014
g6
(g7
S'QString'
p1015
(V5
p1016
tp1017
tp1018
Rp1019
sS'NUM_PREFERRED_ONU'
p1020
g6
(g7
S'QString'
p1021
(V0
p1022
tp1023
tp1024
Rp1025
sS'PREDICTION_TYPE'
p1026
S'FFBI'
p1027
sS'SCHEDULER_SLOT_SIZE'
p1028
g6
(g7
S'QString'
p1029
(V64
p1030
tp1031
tp1032
Rp1033
sS'START_LAMBDA'
p1034
g6
(g7
S'QString'
p1035
(V1
p1036
tp1037
tp1038
Rp1039
sS'LOAD_INCR'
p1040
g6
(g7
S'QString'
p1041
(V0.1
p1042
tp1043
tp1044
Rp1045
sS'OLT_TYPE'
p1046
S'OLT_IPACT_PSF'
p1047
sS'SIM_TIME'
p1048
g6
(g7
S'QString'
p1049
(V300
p1050
tp1051
tp1052
Rp1053
sS'DBA_TYPE'
p1054
S'DBA_LIMITED_GATE'
p1055
sS'SCALABLE_VIDEO_TRAFFIC'
p1056
S'SCALABLE_VIDEO_ON'
p1057
sS'MAX_PROP_DELAY'
p1058
g6
(g7
S'QString'
p1059
(V50e-6
p1060
tp1061
tp1062
Rp1063
sS'MAX_GRANT_SIZE'
p1064
g6
(g7
S'QString'
p1065
(V156876
p1066
tp1067
tp1068
Rp1069
sS'SV_MIN_BOUND'
p1070
g6
(g7
S'QString'
p1071
(V0.0005
p1072
tp1073
tp1074
Rp1075
sS'SV_MAX_BOUND'
p1076
g6
(g7
S'QString'
p1077
(V0.005
p1078
tp1079
tp1080
Rp1081
sS'FIXED_GRANT_SIZE'
p1082
g6
(g7
S'QString'
p1083
(V156876
p1084
tp1085
tp1086
Rp1087
sS'VIDEO_DBA_TYPE'
p1088
S'VIDEO_DBA_LIMITED_GATE'
p1089
sS'GUARD_TIME'
p1090
g6
(g7
S'QString'
p1091
(V1e-6
p1092
tp1093
tp1094
Rp1095
sS'TUNING_TIME'
p1096
g6
(g7
S'QString'
p1097
(V5e-3
p1098
tp1099
tp1100
Rp1101
sS'SIM_TRACE'
p1102
S'SIM_TRACE_OFF'
p1103
sS'LINK_SPEED'
p1104
g6
(g7
S'QString'
p1105
(V1e9
p1106
tp1107
tp1108
Rp1109
sS'END_LAMBDA'
p1110
g6
(g7
S'QString'
p1111
(V1
p1112
tp1113
tp1114
Rp1115
sS'VIDEO_TRAFFIC'
p1116
S'VIDEO_TRAFFIC_ON'
p1117
sS'SCHEDULER_NUM_SLOT'
p1118
g6
(g7
S'QString'
p1119
(V180
p1120
tp1121
tp1122
Rp1123
sS'SV_DROP_LAYER_THRESHOLD'
p1124
g6
(g7
S'QString'
p1125
(V4
p1126
tp1127
tp1128
Rp1129
sS'NUM_RUNS'
p1130
g6
(g7
S'QString'
p1131
(V1
p1132
tp1133
tp1134
Rp1135
sS'VIDEO_PREDICTION'
p1136
S'VIDEO_PREDICTION_OFF'
p1137
sS'HEAVY_LOAD'
p1138
g6
(g7
S'QString'
p1139
(V2
p1140
tp1141
tp1142
Rp1143
sS'NUM_LH_WDM_ONU'
p1144
g6
(g7
S'QString'
p1145
(V0
p1146
tp1147
tp1148
Rp1149
sS'NUM_UH_WDM_ONU'
p1150
g6
(g7
S'QString'
p1151
(V0
p1152
tp1153
tp1154
Rp1155
sS'SCALABLE_VIDEO_DROPPING_ALGORITHM'
p1156
S'SCALABLE_VIDEO_DROPPING_THRESHOLD'
p1157
sS'SCHEDULER_MAX_WINDOW'
p1158
S'0'
p1159
sS'GET_TAIL'
p1160
S'GET_TAIL_OFF'
p1161
sS'VIDEO_TRACE_FILE'
p1162
g6
(g7
S'QString'
p1163
(V/home/admin1/scvid/Traces/A_TestFile_30fps_MGS_6EL.txt
p1164
tp1165
tp1166
Rp1167
sS'FIXED_PROP_DELAY'
p1168
S'FIXED_PROP_DELAY_OFF'
p1169
sS'NUM_WDM_ONU'
p1170
g6
(g7
S'QString'
p1171
(V0
p1172
tp1173
tp1174
Rp1175
sS'TRAFFIC_TYPE'
p1176
S'TRAFFIC_POISSON'
p1177
sS'GRANT_TRACE'
p1178
S'GRANT_TRACE_OFF'
p1179
sS'STARVE_THRESH'
p1180
g6
(g7
S'QString'
p1181
(V64
p1182
tp1183
tp1184
Rp1185
sS'VIDEO_RANDOM_START'
p1186
S'VIDEO_RANDOM_START_OFF'
p1187
sS'AVAIL_COST_WEIGHT'
p1188
g6
(g7
S'QString'
p1189
(V1.0
p1190
tp1191
tp1192
Rp1193
sS'TIME_SHIFT'
p1194
S'0.0'
p1195
sS'WDM_TYPE'
p1196
S'WDM_FIXED'
p1197
sS'SV_DROP_SENSITIVITY'
p1198
g6
(g7
S'QString'
p1199
(V1.0
p1200
tp1201
tp1202
Rp1203
sS'NUM_HEAVY_ONU'
p1204
g6
(g7
S'QString'
p1205
(V0
p1206
tp1207
tp1208
Rp1209
sS'NUM_SS_STREAMS'
p1210
g6
(g7
S'QString'
p1211
(V32
p1212
tp1213
tp1214
Rp1215
sS'NUM_ONU'
p1216
g6
(g7
S'QString'
p1217
(V32
p1218
tp1219
tp1220
Rp1221
sS'START_LOAD'
p1222
g6
(g7
S'QString'
p1223
(V0.1
p1224
tp1225
tp1226
Rp1227
sS'FIXED_PROP_DELAY_VALUE'
p1228
g6
(g7
S'QString'
p1229
(V50e-6
p1230
tp1231
tp1232
Rp1233
sS'END_LOAD'
p1234
g6
(g7
S'QString'
p1235
(V0.9
p1236
tp1237
tp1238
Rp1239
sS'SS_HURST_PARAM'
p1240
g6
(g7
S'QString'
p1241
(V0.75
p1242
tp1243
tp1244
Rp1245
sS'FRAME_RATE'
p1246
g6
(g7
S'QString'
p1247
(V30.0
p1248
tp1249
tp1250
Rp1251
sS'simID'
p1252
g6
(g7
S'QString'
p1253
(Vtest_0091
p1254
tp1255
tp1256
Rp1257
sssS'test_0083'
p1258
(dp1259
S'params'
p1260
(dp1261
S'SV_NUM_MA_VALUES'
p1262
g6
(g7
S'QString'
p1263
(V5
p1264
tp1265
tp1266
Rp1267
sS'NUM_PREFERRED_ONU'
p1268
g6
(g7
S'QString'
p1269
(V0
p1270
tp1271
tp1272
Rp1273
sS'PREDICTION_TYPE'
p1274
S'FFBI'
p1275
sS'SCHEDULER_SLOT_SIZE'
p1276
g6
(g7
S'QString'
p1277
(V64
p1278
tp1279
tp1280
Rp1281
sS'START_LAMBDA'
p1282
g6
(g7
S'QString'
p1283
(V1
p1284
tp1285
tp1286
Rp1287
sS'LOAD_INCR'
p1288
g6
(g7
S'QString'
p1289
(V0.1
p1290
tp1291
tp1292
Rp1293
sS'OLT_TYPE'
p1294
S'OLT_IPACT_PSF'
p1295
sS'SIM_TIME'
p1296
g6
(g7
S'QString'
p1297
(V300
p1298
tp1299
tp1300
Rp1301
sS'SV_DROP_SENSITIVITY'
p1302
g6
(g7
S'QString'
p1303
(V1.0
p1304
tp1305
tp1306
Rp1307
sS'MAX_GRANT_SIZE'
p1308
g6
(g7
S'QString'
p1309
(V156876
p1310
tp1311
tp1312
Rp1313
sS'MAX_PROP_DELAY'
p1314
g6
(g7
S'QString'
p1315
(V50e-6
p1316
tp1317
tp1318
Rp1319
sS'SCALABLE_VIDEO_TRAFFIC'
p1320
S'SCALABLE_VIDEO_ON'
p1321
sS'SV_MIN_BOUND'
p1322
g6
(g7
S'QString'
p1323
(V0.0005
p1324
tp1325
tp1326
Rp1327
sS'SV_MAX_BOUND'
p1328
g6
(g7
S'QString'
p1329
(V0.005
p1330
tp1331
tp1332
Rp1333
sS'FIXED_GRANT_SIZE'
p1334
g6
(g7
S'QString'
p1335
(V156876
p1336
tp1337
tp1338
Rp1339
sS'VIDEO_DBA_TYPE'
p1340
S'VIDEO_DBA_LIMITED_GATE'
p1341
sS'GUARD_TIME'
p1342
g6
(g7
S'QString'
p1343
(V1e-6
p1344
tp1345
tp1346
Rp1347
sS'TUNING_TIME'
p1348
g6
(g7
S'QString'
p1349
(V5e-3
p1350
tp1351
tp1352
Rp1353
sS'SIM_TRACE'
p1354
S'SIM_TRACE_OFF'
p1355
sS'LINK_SPEED'
p1356
g6
(g7
S'QString'
p1357
(V1e9
p1358
tp1359
tp1360
Rp1361
sS'END_LAMBDA'
p1362
g6
(g7
S'QString'
p1363
(V1
p1364
tp1365
tp1366
Rp1367
sS'VIDEO_TRAFFIC'
p1368
S'VIDEO_TRAFFIC_ON'
p1369
sS'SCHEDULER_NUM_SLOT'
p1370
g6
(g7
S'QString'
p1371
(V180
p1372
tp1373
tp1374
Rp1375
sS'SV_DROP_LAYER_THRESHOLD'
p1376
g6
(g7
S'QString'
p1377
(V4
p1378
tp1379
tp1380
Rp1381
sS'NUM_RUNS'
p1382
g6
(g7
S'QString'
p1383
(V1
p1384
tp1385
tp1386
Rp1387
sS'VIDEO_PREDICTION'
p1388
S'VIDEO_PREDICTION_OFF'
p1389
sS'HEAVY_LOAD'
p1390
g6
(g7
S'QString'
p1391
(V2
p1392
tp1393
tp1394
Rp1395
sS'NUM_LH_WDM_ONU'
p1396
g6
(g7
S'QString'
p1397
(V0
p1398
tp1399
tp1400
Rp1401
sS'NUM_UH_WDM_ONU'
p1402
g6
(g7
S'QString'
p1403
(V0
p1404
tp1405
tp1406
Rp1407
sS'DBA_TYPE'
p1408
S'DBA_LIMITED_GATE'
p1409
sS'SCALABLE_VIDEO_DROPPING_ALGORITHM'
p1410
S'SCALABLE_VIDEO_DROPPING_THRESHOLD'
p1411
sS'SCHEDULER_MAX_WINDOW'
p1412
S'0'
p1413
sS'GET_TAIL'
p1414
S'GET_TAIL_OFF'
p1415
sS'VIDEO_TRACE_FILE'
p1416
g6
(g7
S'QString'
p1417
(V/home/admin1/scvid/Traces/A_TestFile_30fps_MGS_6EL.txt
p1418
tp1419
tp1420
Rp1421
sS'FIXED_PROP_DELAY'
p1422
S'FIXED_PROP_DELAY_OFF'
p1423
sS'NUM_WDM_ONU'
p1424
g6
(g7
S'QString'
p1425
(V0
p1426
tp1427
tp1428
Rp1429
sS'TRAFFIC_TYPE'
p1430
S'TRAFFIC_POISSON'
p1431
sS'GRANT_TRACE'
p1432
S'GRANT_TRACE_OFF'
p1433
sS'STARVE_THRESH'
p1434
g6
(g7
S'QString'
p1435
(V64
p1436
tp1437
tp1438
Rp1439
sS'VIDEO_RANDOM_START'
p1440
S'VIDEO_RANDOM_START_OFF'
p1441
sS'AVAIL_COST_WEIGHT'
p1442
g6
(g7
S'QString'
p1443
(V1.0
p1444
tp1445
tp1446
Rp1447
sS'TIME_SHIFT'
p1448
S'0.0'
p1449
sS'WDM_TYPE'
p1450
S'WDM_FIXED'
p1451
sS'NUM_HEAVY_ONU'
p1452
g6
(g7
S'QString'
p1453
(V0
p1454
tp1455
tp1456
Rp1457
sS'NUM_SS_STREAMS'
p1458
g6
(g7
S'QString'
p1459
(V32
p1460
tp1461
tp1462
Rp1463
sS'NUM_ONU'
p1464
g6
(g7
S'QString'
p1465
(V32
p1466
tp1467
tp1468
Rp1469
sS'START_LOAD'
p1470
g6
(g7
S'QString'
p1471
(V0.1
p1472
tp1473
tp1474
Rp1475
sS'FIXED_PROP_DELAY_VALUE'
p1476
g6
(g7
S'QString'
p1477
(V50e-6
p1478
tp1479
tp1480
Rp1481
sS'END_LOAD'
p1482
g6
(g7
S'QString'
p1483
(V0.9
p1484
tp1485
tp1486
Rp1487
sS'SS_HURST_PARAM'
p1488
g6
(g7
S'QString'
p1489
(V0.75
p1490
tp1491
tp1492
Rp1493
sS'FRAME_RATE'
p1494
g6
(g7
S'QString'
p1495
(V30.0
p1496
tp1497
tp1498
Rp1499
sS'simID'
p1500
g6
(g7
S'QString'
p1501
(Vtest_0083
p1502
tp1503
tp1504
Rp1505
ssS'host'
p1506
S'localhost'
p1507
sS'pid'
p1508
I4686
ssS'test_0080'
p1509
(dp1510
S'pid'
p1511
I2581
sS'host'
p1512
S'localhost'
p1513
sS'params'
p1514
(dp1515
S'SV_NUM_MA_VALUES'
p1516
g6
(g7
S'QString'
p1517
(V5
p1518
tp1519
tp1520
Rp1521
sS'NUM_PREFERRED_ONU'
p1522
g6
(g7
S'QString'
p1523
(V0
p1524
tp1525
tp1526
Rp1527
sS'PREDICTION_TYPE'
p1528
S'FFBI'
p1529
sS'SCHEDULER_SLOT_SIZE'
p1530
g6
(g7
S'QString'
p1531
(V64
p1532
tp1533
tp1534
Rp1535
sS'START_LAMBDA'
p1536
g6
(g7
S'QString'
p1537
(V1
p1538
tp1539
tp1540
Rp1541
sS'START_LOAD'
p1542
g6
(g7
S'QString'
p1543
(V0.1
p1544
tp1545
tp1546
Rp1547
sS'LOAD_INCR'
p1548
g6
(g7
S'QString'
p1549
(V0.1
p1550
tp1551
tp1552
Rp1553
sS'OLT_TYPE'
p1554
S'OLT_ONLINE_NASC'
p1555
sS'SIM_TIME'
p1556
g6
(g7
S'QString'
p1557
(V300
p1558
tp1559
tp1560
Rp1561
sS'SV_DROP_SENSITIVITY'
p1562
g6
(g7
S'QString'
p1563
(V1.0
p1564
tp1565
tp1566
Rp1567
sS'MAX_GRANT_SIZE'
p1568
g6
(g7
S'QString'
p1569
(V156876
p1570
tp1571
tp1572
Rp1573
sS'MAX_PROP_DELAY'
p1574
g6
(g7
S'QString'
p1575
(V50e-6
p1576
tp1577
tp1578
Rp1579
sS'SCALABLE_VIDEO_TRAFFIC'
p1580
S'SCALABLE_VIDEO_ON'
p1581
sS'SV_MIN_BOUND'
p1582
g6
(g7
S'QString'
p1583
(V0.0005
p1584
tp1585
tp1586
Rp1587
sS'SV_MAX_BOUND'
p1588
g6
(g7
S'QString'
p1589
(V0.005
p1590
tp1591
tp1592
Rp1593
sS'FIXED_GRANT_SIZE'
p1594
g6
(g7
S'QString'
p1595
(V156876
p1596
tp1597
tp1598
Rp1599
sS'VIDEO_DBA_TYPE'
p1600
S'VIDEO_DBA_LIMITED_GATE'
p1601
sS'GUARD_TIME'
p1602
g6
(g7
S'QString'
p1603
(V1e-6
p1604
tp1605
tp1606
Rp1607
sS'TUNING_TIME'
p1608
g6
(g7
S'QString'
p1609
(V5e-3
p1610
tp1611
tp1612
Rp1613
sS'END_LOAD'
p1614
g6
(g7
S'QString'
p1615
(V0.9
p1616
tp1617
tp1618
Rp1619
sS'LINK_SPEED'
p1620
g6
(g7
S'QString'
p1621
(V1e9
p1622
tp1623
tp1624
Rp1625
sS'END_LAMBDA'
p1626
g6
(g7
S'QString'
p1627
(V1
p1628
tp1629
tp1630
Rp1631
sS'SCHEDULER_NUM_SLOT'
p1632
g6
(g7
S'QString'
p1633
(V180
p1634
tp1635
tp1636
Rp1637
sS'SV_DROP_LAYER_THRESHOLD'
p1638
g6
(g7
S'QString'
p1639
(V4
p1640
tp1641
tp1642
Rp1643
sS'NUM_RUNS'
p1644
g6
(g7
S'QString'
p1645
(V1
p1646
tp1647
tp1648
Rp1649
sS'VIDEO_PREDICTION'
p1650
S'VIDEO_PREDICTION_OFF'
p1651
sS'HEAVY_LOAD'
p1652
g6
(g7
S'QString'
p1653
(V2
p1654
tp1655
tp1656
Rp1657
sS'NUM_LH_WDM_ONU'
p1658
g6
(g7
S'QString'
p1659
(V0
p1660
tp1661
tp1662
Rp1663
sS'NUM_UH_WDM_ONU'
p1664
g6
(g7
S'QString'
p1665
(V0
p1666
tp1667
tp1668
Rp1669
sS'DBA_TYPE'
p1670
S'DBA_LIMITED_GATE'
p1671
sS'SCALABLE_VIDEO_DROPPING_ALGORITHM'
p1672
S'SCALABLE_VIDEO_DROPPING_THRESHOLD'
p1673
sS'SCHEDULER_MAX_WINDOW'
p1674
S'0'
p1675
sS'GET_TAIL'
p1676
S'GET_TAIL_OFF'
p1677
sS'VIDEO_TRACE_FILE'
p1678
g6
(g7
S'QString'
p1679
(V/home/admin1/scvid/Traces/A_TestFile_30fps_MGS_6EL.txt
p1680
tp1681
tp1682
Rp1683
sS'FIXED_PROP_DELAY'
p1684
S'FIXED_PROP_DELAY_OFF'
p1685
sS'NUM_WDM_ONU'
p1686
g6
(g7
S'QString'
p1687
(V0
p1688
tp1689
tp1690
Rp1691
sS'TRAFFIC_TYPE'
p1692
S'TRAFFIC_POISSON'
p1693
sS'GRANT_TRACE'
p1694
S'GRANT_TRACE_OFF'
p1695
sS'STARVE_THRESH'
p1696
g6
(g7
S'QString'
p1697
(V64
p1698
tp1699
tp1700
Rp1701
sS'VIDEO_RANDOM_START'
p1702
S'VIDEO_RANDOM_START_OFF'
p1703
sS'AVAIL_COST_WEIGHT'
p1704
g6
(g7
S'QString'
p1705
(V1.0
p1706
tp1707
tp1708
Rp1709
sS'TIME_SHIFT'
p1710
S'0.0'
p1711
sS'WDM_TYPE'
p1712
S'WDM_FIXED'
p1713
sS'NUM_HEAVY_ONU'
p1714
g6
(g7
S'QString'
p1715
(V0
p1716
tp1717
tp1718
Rp1719
sS'NUM_SS_STREAMS'
p1720
g6
(g7
S'QString'
p1721
(V32
p1722
tp1723
tp1724
Rp1725
sS'NUM_ONU'
p1726
g6
(g7
S'QString'
p1727
(V32
p1728
tp1729
tp1730
Rp1731
sS'VIDEO_TRAFFIC'
p1732
S'VIDEO_TRAFFIC_ON'
p1733
sS'FIXED_PROP_DELAY_VALUE'
p1734
g6
(g7
S'QString'
p1735
(V50e-6
p1736
tp1737
tp1738
Rp1739
sS'SIM_TRACE'
p1740
S'SIM_TRACE_OFF'
p1741
sS'SS_HURST_PARAM'
p1742
g6
(g7
S'QString'
p1743
(V0.75
p1744
tp1745
tp1746
Rp1747
sS'FRAME_RATE'
p1748
g6
(g7
S'QString'
p1749
(V30.0
p1750
tp1751
tp1752
Rp1753
sS'simID'
p1754
g6
(g7
S'QString'
p1755
(Vtest_0080
p1756
tp1757
tp1758
Rp1759
sssS'test_0078'
p1760
(dp1761
S'pid'
p1762
I459
sS'host'
p1763
S'localhost'
p1764
sS'params'
p1765
(dp1766
S'SV_NUM_MA_VALUES'
p1767
g6
(g7
S'QString'
p1768
(V5
p1769
tp1770
tp1771
Rp1772
sS'NUM_PREFERRED_ONU'
p1773
g6
(g7
S'QString'
p1774
(V0
p1775
tp1776
tp1777
Rp1778
sS'PREDICTION_TYPE'
p1779
S'FFBI'
p1780
sS'SCHEDULER_SLOT_SIZE'
p1781
g6
(g7
S'QString'
p1782
(V64
p1783
tp1784
tp1785
Rp1786
sS'START_LAMBDA'
p1787
g6
(g7
S'QString'
p1788
(V1
p1789
tp1790
tp1791
Rp1792
sS'START_LOAD'
p1793
g6
(g7
S'QString'
p1794
(V0.1
p1795
tp1796
tp1797
Rp1798
sS'LOAD_INCR'
p1799
g6
(g7
S'QString'
p1800
(V0.1
p1801
tp1802
tp1803
Rp1804
sS'OLT_TYPE'
p1805
S'OLT_IPACT_PSF'
p1806
sS'SIM_TIME'
p1807
g6
(g7
S'QString'
p1808
(V300
p1809
tp1810
tp1811
Rp1812
sS'SV_DROP_SENSITIVITY'
p1813
g6
(g7
S'QString'
p1814
(V1.0
p1815
tp1816
tp1817
Rp1818
sS'MAX_GRANT_SIZE'
p1819
g6
(g7
S'QString'
p1820
(V156876
p1821
tp1822
tp1823
Rp1824
sS'MAX_PROP_DELAY'
p1825
g6
(g7
S'QString'
p1826
(V50e-6
p1827
tp1828
tp1829
Rp1830
sS'SCALABLE_VIDEO_TRAFFIC'
p1831
S'SCALABLE_VIDEO_ON'
p1832
sS'SV_MIN_BOUND'
p1833
g6
(g7
S'QString'
p1834
(V0.0005
p1835
tp1836
tp1837
Rp1838
sS'SV_MAX_BOUND'
p1839
g6
(g7
S'QString'
p1840
(V0.005
p1841
tp1842
tp1843
Rp1844
sS'FIXED_GRANT_SIZE'
p1845
g6
(g7
S'QString'
p1846
(V156876
p1847
tp1848
tp1849
Rp1850
sS'VIDEO_DBA_TYPE'
p1851
S'VIDEO_DBA_LIMITED_GATE'
p1852
sS'GUARD_TIME'
p1853
g6
(g7
S'QString'
p1854
(V1e-6
p1855
tp1856
tp1857
Rp1858
sS'TUNING_TIME'
p1859
g6
(g7
S'QString'
p1860
(V5e-3
p1861
tp1862
tp1863
Rp1864
sS'END_LOAD'
p1865
g6
(g7
S'QString'
p1866
(V0.9
p1867
tp1868
tp1869
Rp1870
sS'LINK_SPEED'
p1871
g6
(g7
S'QString'
p1872
(V1e9
p1873
tp1874
tp1875
Rp1876
sS'END_LAMBDA'
p1877
g6
(g7
S'QString'
p1878
(V1
p1879
tp1880
tp1881
Rp1882
sS'SCHEDULER_NUM_SLOT'
p1883
g6
(g7
S'QString'
p1884
(V180
p1885
tp1886
tp1887
Rp1888
sS'SV_DROP_LAYER_THRESHOLD'
p1889
g6
(g7
S'QString'
p1890
(V4
p1891
tp1892
tp1893
Rp1894
sS'NUM_RUNS'
p1895
g6
(g7
S'QString'
p1896
(V1
p1897
tp1898
tp1899
Rp1900
sS'VIDEO_PREDICTION'
p1901
S'VIDEO_PREDICTION_OFF'
p1902
sS'HEAVY_LOAD'
p1903
g6
(g7
S'QString'
p1904
(V2
p1905
tp1906
tp1907
Rp1908
sS'NUM_LH_WDM_ONU'
p1909
g6
(g7
S'QString'
p1910
(V0
p1911
tp1912
tp1913
Rp1914
sS'NUM_UH_WDM_ONU'
p1915
g6
(g7
S'QString'
p1916
(V0
p1917
tp1918
tp1919
Rp1920
sS'DBA_TYPE'
p1921
S'DBA_LIMITED_GATE'
p1922
sS'SCALABLE_VIDEO_DROPPING_ALGORITHM'
p1923
S'SCALABLE_VIDEO_DROPPING_THRESHOLD'
p1924
sS'SCHEDULER_MAX_WINDOW'
p1925
S'0'
p1926
sS'GET_TAIL'
p1927
S'GET_TAIL_OFF'
p1928
sS'VIDEO_TRACE_FILE'
p1929
g6
(g7
S'QString'
p1930
(V/home/admin1/scvid/Traces/A_TestFile_30fps_MGS_6EL.txt
p1931
tp1932
tp1933
Rp1934
sS'FIXED_PROP_DELAY'
p1935
S'FIXED_PROP_DELAY_OFF'
p1936
sS'NUM_WDM_ONU'
p1937
g6
(g7
S'QString'
p1938
(V0
p1939
tp1940
tp1941
Rp1942
sS'TRAFFIC_TYPE'
p1943
S'TRAFFIC_POISSON'
p1944
sS'GRANT_TRACE'
p1945
S'GRANT_TRACE_OFF'
p1946
sS'STARVE_THRESH'
p1947
g6
(g7
S'QString'
p1948
(V64
p1949
tp1950
tp1951
Rp1952
sS'VIDEO_RANDOM_START'
p1953
S'VIDEO_RANDOM_START_OFF'
p1954
sS'AVAIL_COST_WEIGHT'
p1955
g6
(g7
S'QString'
p1956
(V1.0
p1957
tp1958
tp1959
Rp1960
sS'TIME_SHIFT'
p1961
S'0.0'
p1962
sS'WDM_TYPE'
p1963
S'WDM_FIXED'
p1964
sS'NUM_HEAVY_ONU'
p1965
g6
(g7
S'QString'
p1966
(V0
p1967
tp1968
tp1969
Rp1970
sS'NUM_SS_STREAMS'
p1971
g6
(g7
S'QString'
p1972
(V32
p1973
tp1974
tp1975
Rp1976
sS'NUM_ONU'
p1977
g6
(g7
S'QString'
p1978
(V32
p1979
tp1980
tp1981
Rp1982
sS'VIDEO_TRAFFIC'
p1983
S'VIDEO_TRAFFIC_ON'
p1984
sS'FIXED_PROP_DELAY_VALUE'
p1985
g6
(g7
S'QString'
p1986
(V50e-6
p1987
tp1988
tp1989
Rp1990
sS'SIM_TRACE'
p1991
S'SIM_TRACE_OFF'
p1992
sS'SS_HURST_PARAM'
p1993
g6
(g7
S'QString'
p1994
(V0.75
p1995
tp1996
tp1997
Rp1998
sS'FRAME_RATE'
p1999
g6
(g7
S'QString'
p2000
(V30.0
p2001
tp2002
tp2003
Rp2004
sS'simID'
p2005
g6
(g7
S'QString'
p2006
(Vtest_0078
p2007
tp2008
tp2009
Rp2010
sssS'test_0094'
p2011
(dp2012
g1009
I10018
sg1010
g1011
sg1012
(dp2013
g1014
g6
(g7
S'QString'
p2014
(V5
p2015
tp2016
tp2017
Rp2018
sg1020
g6
(g7
S'QString'
p2019
(V0
p2020
tp2021
tp2022
Rp2023
sg1026
g1027
sg1028
g6
(g7
S'QString'
p2024
(V64
p2025
tp2026
tp2027
Rp2028
sg1034
g6
(g7
S'QString'
p2029
(V1
p2030
tp2031
tp2032
Rp2033
sg1222
g6
(g7
S'QString'
p2034
(V0.1
p2035
tp2036
tp2037
Rp2038
sg1040
g6
(g7
S'QString'
p2039
(V0.1
p2040
tp2041
tp2042
Rp2043
sg1046
g1047
sg1048
g6
(g7
S'QString'
p2044
(V300
p2045
tp2046
tp2047
Rp2048
sg1198
g6
(g7
S'QString'
p2049
(V1.0
p2050
tp2051
tp2052
Rp2053
sg1064
g6
(g7
S'QString'
p2054
(V156876
p2055
tp2056
tp2057
Rp2058
sg1058
g6
(g7
S'QString'
p2059
(V50e-6
p2060
tp2061
tp2062
Rp2063
sg1056
g1057
sg1070
g6
(g7
S'QString'
p2064
(V0.0005
p2065
tp2066
tp2067
Rp2068
sg1076
g6
(g7
S'QString'
p2069
(V0.005
p2070
tp2071
tp2072
Rp2073
sg1082
g6
(g7
S'QString'
p2074
(V156876
p2075
tp2076
tp2077
Rp2078
sg1088
g1089
sg1090
g6
(g7
S'QString'
p2079
(V1e-6
p2080
tp2081
tp2082
Rp2083
sg1096
g6
(g7
S'QString'
p2084
(V5e-3
p2085
tp2086
tp2087
Rp2088
sg1234
g6
(g7
S'QString'
p2089
(V0.9
p2090
tp2091
tp2092
Rp2093
sg1104
g6
(g7
S'QString'
p2094
(V1e9
p2095
tp2096
tp2097
Rp2098
sg1110
g6
(g7
S'QString'
p2099
(V1
p2100
tp2101
tp2102
Rp2103
sg1118
g6
(g7
S'QString'
p2104
(V180
p2105
tp2106
tp2107
Rp2108
sg1124
g6
(g7
S'QString'
p2109
(V4
p2110
tp2111
tp2112
Rp2113
sg1130
g6
(g7
S'QString'
p2114
(V1
p2115
tp2116
tp2117
Rp2118
sg1136
g1137
sg1138
g6
(g7
S'QString'
p2119
(V2
p2120
tp2121
tp2122
Rp2123
sg1144
g6
(g7
S'QString'
p2124
(V0
p2125
tp2126
tp2127
Rp2128
sg1150
g6
(g7
S'QString'
p2129
(V0
p2130
tp2131
tp2132
Rp2133
sg1054
g1055
sg1156
g1157
sg1158
g1159
sg1160
g1161
sg1162
g6
(g7
S'QString'
p2134
(V/home/admin1/scvid/Traces/A_TestFile_30fps_MGS_6EL.txt
p2135
tp2136
tp2137
Rp2138
sg1168
g1169
sg1170
g6
(g7
S'QString'
p2139
(V0
p2140
tp2141
tp2142
Rp2143
sg1176
g1177
sg1178
g1179
sg1180
g6
(g7
S'QString'
p2144
(V64
p2145
tp2146
tp2147
Rp2148
sg1186
g1187
sg1188
g6
(g7
S'QString'
p2149
(V1.0
p2150
tp2151
tp2152
Rp2153
sg1194
g1195
sg1196
g1197
sg1204
g6
(g7
S'QString'
p2154
(V0
p2155
tp2156
tp2157
Rp2158
sg1210
g6
(g7
S'QString'
p2159
(V32
p2160
tp2161
tp2162
Rp2163
sg1216
g6
(g7
S'QString'
p2164
(V32
p2165
tp2166
tp2167
Rp2168
sg1116
g1117
sg1228
g6
(g7
S'QString'
p2169
(V50e-6
p2170
tp2171
tp2172
Rp2173
sg1102
g1103
sg1240
g6
(g7
S'QString'
p2174
(V0.75
p2175
tp2176
tp2177
Rp2178
sg1246
g6
(g7
S'QString'
p2179
(V30.0
p2180
tp2181
tp2182
Rp2183
sg1252
g6
(g7
S'QString'
p2184
(Vtest_0094
p2185
tp2186
tp2187
Rp2188
sssS'test_0084'
p2189
(dp2190
S'pid'
p2191
I5211
sS'host'
p2192
S'localhost'
p2193
sS'params'
p2194
(dp2195
S'SV_NUM_MA_VALUES'
p2196
g6
(g7
S'QString'
p2197
(V5
p2198
tp2199
tp2200
Rp2201
sS'NUM_PREFERRED_ONU'
p2202
g6
(g7
S'QString'
p2203
(V0
p2204
tp2205
tp2206
Rp2207
sS'PREDICTION_TYPE'
p2208
S'FFBI'
p2209
sS'SCHEDULER_SLOT_SIZE'
p2210
g6
(g7
S'QString'
p2211
(V64
p2212
tp2213
tp2214
Rp2215
sS'START_LAMBDA'
p2216
g6
(g7
S'QString'
p2217
(V1
p2218
tp2219
tp2220
Rp2221
sS'START_LOAD'
p2222
g6
(g7
S'QString'
p2223
(V0.1
p2224
tp2225
tp2226
Rp2227
sS'LOAD_INCR'
p2228
g6
(g7
S'QString'
p2229
(V0.1
p2230
tp2231
tp2232
Rp2233
sS'OLT_TYPE'
p2234
S'OLT_ONLINE_NASC'
p2235
sS'SIM_TIME'
p2236
g6
(g7
S'QString'
p2237
(V300
p2238
tp2239
tp2240
Rp2241
sS'SV_DROP_SENSITIVITY'
p2242
g6
(g7
S'QString'
p2243
(V1.0
p2244
tp2245
tp2246
Rp2247
sS'MAX_GRANT_SIZE'
p2248
g6
(g7
S'QString'
p2249
(V156876
p2250
tp2251
tp2252
Rp2253
sS'MAX_PROP_DELAY'
p2254
g6
(g7
S'QString'
p2255
(V50e-6
p2256
tp2257
tp2258
Rp2259
sS'SCALABLE_VIDEO_TRAFFIC'
p2260
S'SCALABLE_VIDEO_ON'
p2261
sS'SV_MIN_BOUND'
p2262
g6
(g7
S'QString'
p2263
(V0.0005
p2264
tp2265
tp2266
Rp2267
sS'SV_MAX_BOUND'
p2268
g6
(g7
S'QString'
p2269
(V0.005
p2270
tp2271
tp2272
Rp2273
sS'FIXED_GRANT_SIZE'
p2274
g6
(g7
S'QString'
p2275
(V156876
p2276
tp2277
tp2278
Rp2279
sS'VIDEO_DBA_TYPE'
p2280
S'VIDEO_DBA_LIMITED_GATE'
p2281
sS'GUARD_TIME'
p2282
g6
(g7
S'QString'
p2283
(V1e-6
p2284
tp2285
tp2286
Rp2287
sS'TUNING_TIME'
p2288
g6
(g7
S'QString'
p2289
(V5e-3
p2290
tp2291
tp2292
Rp2293
sS'END_LOAD'
p2294
g6
(g7
S'QString'
p2295
(V0.9
p2296
tp2297
tp2298
Rp2299
sS'LINK_SPEED'
p2300
g6
(g7
S'QString'
p2301
(V1e9
p2302
tp2303
tp2304
Rp2305
sS'END_LAMBDA'
p2306
g6
(g7
S'QString'
p2307
(V1
p2308
tp2309
tp2310
Rp2311
sS'SCHEDULER_NUM_SLOT'
p2312
g6
(g7
S'QString'
p2313
(V180
p2314
tp2315
tp2316
Rp2317
sS'SV_DROP_LAYER_THRESHOLD'
p2318
g6
(g7
S'QString'
p2319
(V4
p2320
tp2321
tp2322
Rp2323
sS'NUM_RUNS'
p2324
g6
(g7
S'QString'
p2325
(V1
p2326
tp2327
tp2328
Rp2329
sS'VIDEO_PREDICTION'
p2330
S'VIDEO_PREDICTION_OFF'
p2331
sS'HEAVY_LOAD'
p2332
g6
(g7
S'QString'
p2333
(V2
p2334
tp2335
tp2336
Rp2337
sS'NUM_LH_WDM_ONU'
p2338
g6
(g7
S'QString'
p2339
(V0
p2340
tp2341
tp2342
Rp2343
sS'NUM_UH_WDM_ONU'
p2344
g6
(g7
S'QString'
p2345
(V0
p2346
tp2347
tp2348
Rp2349
sS'DBA_TYPE'
p2350
S'DBA_LIMITED_GATE'
p2351
sS'SCALABLE_VIDEO_DROPPING_ALGORITHM'
p2352
S'SCALABLE_VIDEO_DROPPING_THRESHOLD'
p2353
sS'SCHEDULER_MAX_WINDOW'
p2354
S'0'
p2355
sS'GET_TAIL'
p2356
S'GET_TAIL_OFF'
p2357
sS'VIDEO_TRACE_FILE'
p2358
g6
(g7
S'QString'
p2359
(V/home/admin1/scvid/Traces/A_TestFile_30fps_MGS_6EL.txt
p2360
tp2361
tp2362
Rp2363
sS'FIXED_PROP_DELAY'
p2364
S'FIXED_PROP_DELAY_OFF'
p2365
sS'NUM_WDM_ONU'
p2366
g6
(g7
S'QString'
p2367
(V0
p2368
tp2369
tp2370
Rp2371
sS'TRAFFIC_TYPE'
p2372
S'TRAFFIC_POISSON'
p2373
sS'GRANT_TRACE'
p2374
S'GRANT_TRACE_OFF'
p2375
sS'STARVE_THRESH'
p2376
g6
(g7
S'QString'
p2377
(V64
p2378
tp2379
tp2380
Rp2381
sS'VIDEO_RANDOM_START'
p2382
S'VIDEO_RANDOM_START_OFF'
p2383
sS'AVAIL_COST_WEIGHT'
p2384
g6
(g7
S'QString'
p2385
(V1.0
p2386
tp2387
tp2388
Rp2389
sS'TIME_SHIFT'
p2390
S'0.0'
p2391
sS'WDM_TYPE'
p2392
S'WDM_FIXED'
p2393
sS'NUM_HEAVY_ONU'
p2394
g6
(g7
S'QString'
p2395
(V0
p2396
tp2397
tp2398
Rp2399
sS'NUM_SS_STREAMS'
p2400
g6
(g7
S'QString'
p2401
(V32
p2402
tp2403
tp2404
Rp2405
sS'NUM_ONU'
p2406
g6
(g7
S'QString'
p2407
(V32
p2408
tp2409
tp2410
Rp2411
sS'VIDEO_TRAFFIC'
p2412
S'VIDEO_TRAFFIC_ON'
p2413
sS'FIXED_PROP_DELAY_VALUE'
p2414
g6
(g7
S'QString'
p2415
(V50e-6
p2416
tp2417
tp2418
Rp2419
sS'SIM_TRACE'
p2420
S'SIM_TRACE_OFF'
p2421
sS'SS_HURST_PARAM'
p2422
g6
(g7
S'QString'
p2423
(V0.75
p2424
tp2425
tp2426
Rp2427
sS'FRAME_RATE'
p2428
g6
(g7
S'QString'
p2429
(V30.0
p2430
tp2431
tp2432
Rp2433
sS'simID'
p2434
g6
(g7
S'QString'
p2435
(Vtest_0084
p2436
tp2437
tp2438
Rp2439
sssS'test_0085'
p2440
(dp2441
S'params'
p2442
(dp2443
S'SV_NUM_MA_VALUES'
p2444
g6
(g7
S'QString'
p2445
(V5
p2446
tp2447
tp2448
Rp2449
sS'NUM_PREFERRED_ONU'
p2450
g6
(g7
S'QString'
p2451
(V0
p2452
tp2453
tp2454
Rp2455
sS'PREDICTION_TYPE'
p2456
S'FFBI'
p2457
sS'SCHEDULER_SLOT_SIZE'
p2458
g6
(g7
S'QString'
p2459
(V64
p2460
tp2461
tp2462
Rp2463
sS'START_LAMBDA'
p2464
g6
(g7
S'QString'
p2465
(V1
p2466
tp2467
tp2468
Rp2469
sS'LOAD_INCR'
p2470
g6
(g7
S'QString'
p2471
(V0.1
p2472
tp2473
tp2474
Rp2475
sS'OLT_TYPE'
p2476
S'OLT_ONLINE_NASC'
p2477
sS'SIM_TIME'
p2478
g6
(g7
S'QString'
p2479
(V300
p2480
tp2481
tp2482
Rp2483
sS'SV_DROP_SENSITIVITY'
p2484
g6
(g7
S'QString'
p2485
(V1.0
p2486
tp2487
tp2488
Rp2489
sS'MAX_GRANT_SIZE'
p2490
g6
(g7
S'QString'
p2491
(V156876
p2492
tp2493
tp2494
Rp2495
sS'MAX_PROP_DELAY'
p2496
g6
(g7
S'QString'
p2497
(V50e-6
p2498
tp2499
tp2500
Rp2501
sS'SCALABLE_VIDEO_TRAFFIC'
p2502
S'SCALABLE_VIDEO_ON'
p2503
sS'SV_MIN_BOUND'
p2504
g6
(g7
S'QString'
p2505
(V0.0005
p2506
tp2507
tp2508
Rp2509
sS'SV_MAX_BOUND'
p2510
g6
(g7
S'QString'
p2511
(V0.005
p2512
tp2513
tp2514
Rp2515
sS'FIXED_GRANT_SIZE'
p2516
g6
(g7
S'QString'
p2517
(V156876
p2518
tp2519
tp2520
Rp2521
sS'VIDEO_DBA_TYPE'
p2522
S'VIDEO_DBA_LIMITED_GATE'
p2523
sS'GUARD_TIME'
p2524
g6
(g7
S'QString'
p2525
(V1e-6
p2526
tp2527
tp2528
Rp2529
sS'TUNING_TIME'
p2530
g6
(g7
S'QString'
p2531
(V5e-3
p2532
tp2533
tp2534
Rp2535
sS'SIM_TRACE'
p2536
S'SIM_TRACE_OFF'
p2537
sS'LINK_SPEED'
p2538
g6
(g7
S'QString'
p2539
(V1e9
p2540
tp2541
tp2542
Rp2543
sS'END_LAMBDA'
p2544
g6
(g7
S'QString'
p2545
(V1
p2546
tp2547
tp2548
Rp2549
sS'VIDEO_TRAFFIC'
p2550
S'VIDEO_TRAFFIC_ON'
p2551
sS'SCHEDULER_NUM_SLOT'
p2552
g6
(g7
S'QString'
p2553
(V180
p2554
tp2555
tp2556
Rp2557
sS'SV_DROP_LAYER_THRESHOLD'
p2558
g6
(g7
S'QString'
p2559
(V4
p2560
tp2561
tp2562
Rp2563
sS'NUM_RUNS'
p2564
g6
(g7
S'QString'
p2565
(V1
p2566
tp2567
tp2568
Rp2569
sS'VIDEO_PREDICTION'
p2570
S'VIDEO_PREDICTION_OFF'
p2571
sS'HEAVY_LOAD'
p2572
g6
(g7
S'QString'
p2573
(V2
p2574
tp2575
tp2576
Rp2577
sS'NUM_LH_WDM_ONU'
p2578
g6
(g7
S'QString'
p2579
(V0
p2580
tp2581
tp2582
Rp2583
sS'NUM_UH_WDM_ONU'
p2584
g6
(g7
S'QString'
p2585
(V0
p2586
tp2587
tp2588
Rp2589
sS'DBA_TYPE'
p2590
S'DBA_LIMITED_GATE'
p2591
sS'SCALABLE_VIDEO_DROPPING_ALGORITHM'
p2592
S'SCALABLE_VIDEO_DROPPING_THRESHOLD'
p2593
sS'SCHEDULER_MAX_WINDOW'
p2594
S'0'
p2595
sS'GET_TAIL'
p2596
S'GET_TAIL_OFF'
p2597
sS'VIDEO_TRACE_FILE'
p2598
g6
(g7
S'QString'
p2599
(V/home/admin1/scvid/Traces/A_TestFile_30fps_MGS_6EL.txt
p2600
tp2601
tp2602
Rp2603
sS'FIXED_PROP_DELAY'
p2604
S'FIXED_PROP_DELAY_OFF'
p2605
sS'NUM_WDM_ONU'
p2606
g6
(g7
S'QString'
p2607
(V0
p2608
tp2609
tp2610
Rp2611
sS'TRAFFIC_TYPE'
p2612
S'TRAFFIC_POISSON'
p2613
sS'GRANT_TRACE'
p2614
S'GRANT_TRACE_OFF'
p2615
sS'STARVE_THRESH'
p2616
g6
(g7
S'QString'
p2617
(V64
p2618
tp2619
tp2620
Rp2621
sS'VIDEO_RANDOM_START'
p2622
S'VIDEO_RANDOM_START_OFF'
p2623
sS'AVAIL_COST_WEIGHT'
p2624
g6
(g7
S'QString'
p2625
(V1.0
p2626
tp2627
tp2628
Rp2629
sS'TIME_SHIFT'
p2630
S'0.0'
p2631
sS'WDM_TYPE'
p2632
S'WDM_FIXED'
p2633
sS'NUM_HEAVY_ONU'
p2634
g6
(g7
S'QString'
p2635
(V0
p2636
tp2637
tp2638
Rp2639
sS'NUM_SS_STREAMS'
p2640
g6
(g7
S'QString'
p2641
(V32
p2642
tp2643
tp2644
Rp2645
sS'NUM_ONU'
p2646
g6
(g7
S'QString'
p2647
(V32
p2648
tp2649
tp2650
Rp2651
sS'START_LOAD'
p2652
g6
(g7
S'QString'
p2653
(V0.1
p2654
tp2655
tp2656
Rp2657
sS'FIXED_PROP_DELAY_VALUE'
p2658
g6
(g7
S'QString'
p2659
(V50e-6
p2660
tp2661
tp2662
Rp2663
sS'END_LOAD'
p2664
g6
(g7
S'QString'
p2665
(V0.9
p2666
tp2667
tp2668
Rp2669
sS'SS_HURST_PARAM'
p2670
g6
(g7
S'QString'
p2671
(V0.75
p2672
tp2673
tp2674
Rp2675
sS'FRAME_RATE'
p2676
g6
(g7
S'QString'
p2677
(V30.0
p2678
tp2679
tp2680
Rp2681
sS'simID'
p2682
g6
(g7
S'QString'
p2683
(Vtest_0085
p2684
tp2685
tp2686
Rp2687
ssS'host'
p2688
S'localhost'
p2689
sS'pid'
p2690
I5664
ssS'test_0089'
p2691
(dp2692
S'params'
p2693
(dp2694
S'SV_NUM_MA_VALUES'
p2695
g6
(g7
S'QString'
p2696
(V5
p2697
tp2698
tp2699
Rp2700
sS'NUM_PREFERRED_ONU'
p2701
g6
(g7
S'QString'
p2702
(V0
p2703
tp2704
tp2705
Rp2706
sS'PREDICTION_TYPE'
p2707
S'FFBI'
p2708
sS'SCHEDULER_SLOT_SIZE'
p2709
g6
(g7
S'QString'
p2710
(V64
p2711
tp2712
tp2713
Rp2714
sS'START_LAMBDA'
p2715
g6
(g7
S'QString'
p2716
(V1
p2717
tp2718
tp2719
Rp2720
sS'LOAD_INCR'
p2721
g6
(g7
S'QString'
p2722
(V0.1
p2723
tp2724
tp2725
Rp2726
sS'OLT_TYPE'
p2727
S'OLT_IPACT_PSF'
p2728
sS'SIM_TIME'
p2729
g6
(g7
S'QString'
p2730
(V300
p2731
tp2732
tp2733
Rp2734
sS'SV_DROP_SENSITIVITY'
p2735
g6
(g7
S'QString'
p2736
(V1.0
p2737
tp2738
tp2739
Rp2740
sS'MAX_GRANT_SIZE'
p2741
g6
(g7
S'QString'
p2742
(V156876
p2743
tp2744
tp2745
Rp2746
sS'MAX_PROP_DELAY'
p2747
g6
(g7
S'QString'
p2748
(V50e-6
p2749
tp2750
tp2751
Rp2752
sS'SCALABLE_VIDEO_TRAFFIC'
p2753
S'SCALABLE_VIDEO_ON'
p2754
sS'SV_MIN_BOUND'
p2755
g6
(g7
S'QString'
p2756
(V0.0005
p2757
tp2758
tp2759
Rp2760
sS'SV_MAX_BOUND'
p2761
g6
(g7
S'QString'
p2762
(V0.005
p2763
tp2764
tp2765
Rp2766
sS'FIXED_GRANT_SIZE'
p2767
g6
(g7
S'QString'
p2768
(V156876
p2769
tp2770
tp2771
Rp2772
sS'VIDEO_DBA_TYPE'
p2773
S'VIDEO_DBA_LIMITED_GATE'
p2774
sS'GUARD_TIME'
p2775
g6
(g7
S'QString'
p2776
(V1e-6
p2777
tp2778
tp2779
Rp2780
sS'TUNING_TIME'
p2781
g6
(g7
S'QString'
p2782
(V5e-3
p2783
tp2784
tp2785
Rp2786
sS'SIM_TRACE'
p2787
S'SIM_TRACE_OFF'
p2788
sS'LINK_SPEED'
p2789
g6
(g7
S'QString'
p2790
(V1e9
p2791
tp2792
tp2793
Rp2794
sS'END_LAMBDA'
p2795
g6
(g7
S'QString'
p2796
(V1
p2797
tp2798
tp2799
Rp2800
sS'VIDEO_TRAFFIC'
p2801
S'VIDEO_TRAFFIC_ON'
p2802
sS'SCHEDULER_NUM_SLOT'
p2803
g6
(g7
S'QString'
p2804
(V180
p2805
tp2806
tp2807
Rp2808
sS'SV_DROP_LAYER_THRESHOLD'
p2809
g6
(g7
S'QString'
p2810
(V4
p2811
tp2812
tp2813
Rp2814
sS'NUM_RUNS'
p2815
g6
(g7
S'QString'
p2816
(V1
p2817
tp2818
tp2819
Rp2820
sS'VIDEO_PREDICTION'
p2821
S'VIDEO_PREDICTION_OFF'
p2822
sS'HEAVY_LOAD'
p2823
g6
(g7
S'QString'
p2824
(V2
p2825
tp2826
tp2827
Rp2828
sS'NUM_LH_WDM_ONU'
p2829
g6
(g7
S'QString'
p2830
(V0
p2831
tp2832
tp2833
Rp2834
sS'NUM_UH_WDM_ONU'
p2835
g6
(g7
S'QString'
p2836
(V0
p2837
tp2838
tp2839
Rp2840
sS'DBA_TYPE'
p2841
S'DBA_LIMITED_GATE'
p2842
sS'SCALABLE_VIDEO_DROPPING_ALGORITHM'
p2843
S'SCALABLE_VIDEO_DROPPING_THRESHOLD'
p2844
sS'SCHEDULER_MAX_WINDOW'
p2845
S'0'
p2846
sS'GET_TAIL'
p2847
S'GET_TAIL_OFF'
p2848
sS'VIDEO_TRACE_FILE'
p2849
g6
(g7
S'QString'
p2850
(V/home/admin1/scvid/Traces/A_TestFile_30fps_MGS_6EL.txt
p2851
tp2852
tp2853
Rp2854
sS'FIXED_PROP_DELAY'
p2855
S'FIXED_PROP_DELAY_OFF'
p2856
sS'NUM_WDM_ONU'
p2857
g6
(g7
S'QString'
p2858
(V0
p2859
tp2860
tp2861
Rp2862
sS'TRAFFIC_TYPE'
p2863
S'TRAFFIC_POISSON'
p2864
sS'GRANT_TRACE'
p2865
S'GRANT_TRACE_OFF'
p2866
sS'STARVE_THRESH'
p2867
g6
(g7
S'QString'
p2868
(V64
p2869
tp2870
tp2871
Rp2872
sS'VIDEO_RANDOM_START'
p2873
S'VIDEO_RANDOM_START_OFF'
p2874
sS'AVAIL_COST_WEIGHT'
p2875
g6
(g7
S'QString'
p2876
(V1.0
p2877
tp2878
tp2879
Rp2880
sS'TIME_SHIFT'
p2881
S'0.0'
p2882
sS'WDM_TYPE'
p2883
S'WDM_FIXED'
p2884
sS'NUM_HEAVY_ONU'
p2885
g6
(g7
S'QString'
p2886
(V0
p2887
tp2888
tp2889
Rp2890
sS'NUM_SS_STREAMS'
p2891
g6
(g7
S'QString'
p2892
(V32
p2893
tp2894
tp2895
Rp2896
sS'NUM_ONU'
p2897
g6
(g7
S'QString'
p2898
(V32
p2899
tp2900
tp2901
Rp2902
sS'START_LOAD'
p2903
g6
(g7
S'QString'
p2904
(V0.1
p2905
tp2906
tp2907
Rp2908
sS'FIXED_PROP_DELAY_VALUE'
p2909
g6
(g7
S'QString'
p2910
(V50e-6
p2911
tp2912
tp2913
Rp2914
sS'END_LOAD'
p2915
g6
(g7
S'QString'
p2916
(V0.9
p2917
tp2918
tp2919
Rp2920
sS'SS_HURST_PARAM'
p2921
g6
(g7
S'QString'
p2922
(V0.75
p2923
tp2924
tp2925
Rp2926
sS'FRAME_RATE'
p2927
g6
(g7
S'QString'
p2928
(V30.0
p2929
tp2930
tp2931
Rp2932
sS'simID'
p2933
g6
(g7
S'QString'
p2934
(Vtest_0089
p2935
tp2936
tp2937
Rp2938
ssS'host'
p2939
S'localhost'
p2940
sS'pid'
p2941
I9573
ssS'test_0090'
p2942
(dp2943
g1009
I9760
sg1010
g1011
sg1012
(dp2944
g1014
g6
(g7
S'QString'
p2945
(V5
p2946
tp2947
tp2948
Rp2949
sg1020
g6
(g7
S'QString'
p2950
(V0
p2951
tp2952
tp2953
Rp2954
sg1026
g1027
sg1028
g6
(g7
S'QString'
p2955
(V64
p2956
tp2957
tp2958
Rp2959
sg1034
g6
(g7
S'QString'
p2960
(V1
p2961
tp2962
tp2963
Rp2964
sg1222
g6
(g7
S'QString'
p2965
(V0.1
p2966
tp2967
tp2968
Rp2969
sg1040
g6
(g7
S'QString'
p2970
(V0.1
p2971
tp2972
tp2973
Rp2974
sg1046
g1047
sg1048
g6
(g7
S'QString'
p2975
(V300
p2976
tp2977
tp2978
Rp2979
sg1198
g6
(g7
S'QString'
p2980
(V1.0
p2981
tp2982
tp2983
Rp2984
sg1064
g6
(g7
S'QString'
p2985
(V156876
p2986
tp2987
tp2988
Rp2989
sg1058
g6
(g7
S'QString'
p2990
(V50e-6
p2991
tp2992
tp2993
Rp2994
sg1056
g1057
sg1070
g6
(g7
S'QString'
p2995
(V0.0005
p2996
tp2997
tp2998
Rp2999
sg1076
g6
(g7
S'QString'
p3000
(V0.005
p3001
tp3002
tp3003
Rp3004
sg1082
g6
(g7
S'QString'
p3005
(V156876
p3006
tp3007
tp3008
Rp3009
sg1088
g1089
sg1090
g6
(g7
S'QString'
p3010
(V1e-6
p3011
tp3012
tp3013
Rp3014
sg1096
g6
(g7
S'QString'
p3015
(V5e-3
p3016
tp3017
tp3018
Rp3019
sg1234
g6
(g7
S'QString'
p3020
(V0.9
p3021
tp3022
tp3023
Rp3024
sg1104
g6
(g7
S'QString'
p3025
(V1e9
p3026
tp3027
tp3028
Rp3029
sg1110
g6
(g7
S'QString'
p3030
(V1
p3031
tp3032
tp3033
Rp3034
sg1118
g6
(g7
S'QString'
p3035
(V180
p3036
tp3037
tp3038
Rp3039
sg1124
g6
(g7
S'QString'
p3040
(V4
p3041
tp3042
tp3043
Rp3044
sg1130
g6
(g7
S'QString'
p3045
(V1
p3046
tp3047
tp3048
Rp3049
sg1136
g1137
sg1138
g6
(g7
S'QString'
p3050
(V2
p3051
tp3052
tp3053
Rp3054
sg1144
g6
(g7
S'QString'
p3055
(V0
p3056
tp3057
tp3058
Rp3059
sg1150
g6
(g7
S'QString'
p3060
(V0
p3061
tp3062
tp3063
Rp3064
sg1054
g1055
sg1156
g1157
sg1158
g1159
sg1160
g1161
sg1162
g6
(g7
S'QString'
p3065
(V/home/admin1/scvid/Traces/A_TestFile_30fps_MGS_6EL.txt
p3066
tp3067
tp3068
Rp3069
sg1168
g1169
sg1170
g6
(g7
S'QString'
p3070
(V0
p3071
tp3072
tp3073
Rp3074
sg1176
g1177
sg1178
g1179
sg1180
g6
(g7
S'QString'
p3075
(V64
p3076
tp3077
tp3078
Rp3079
sg1186
g1187
sg1188
g6
(g7
S'QString'
p3080
(V1.0
p3081
tp3082
tp3083
Rp3084
sg1194
g1195
sg1196
g1197
sg1204
g6
(g7
S'QString'
p3085
(V0
p3086
tp3087
tp3088
Rp3089
sg1210
g6
(g7
S'QString'
p3090
(V32
p3091
tp3092
tp3093
Rp3094
sg1216
g6
(g7
S'QString'
p3095
(V32
p3096
tp3097
tp3098
Rp3099
sg1116
g1117
sg1228
g6
(g7
S'QString'
p3100
(V50e-6
p3101
tp3102
tp3103
Rp3104
sg1102
g1103
sg1240
g6
(g7
S'QString'
p3105
(V0.75
p3106
tp3107
tp3108
Rp3109
sg1246
g6
(g7
S'QString'
p3110
(V30.0
p3111
tp3112
tp3113
Rp3114
sg1252
g6
(g7
S'QString'
p3115
(Vtest_0090
p3116
tp3117
tp3118
Rp3119
sssS'test_0093'
p3120
(dp3121
g1009
I9984
sg1010
g1011
sg1012
(dp3122
g1014
g6
(g7
S'QString'
p3123
(V5
p3124
tp3125
tp3126
Rp3127
sg1020
g6
(g7
S'QString'
p3128
(V0
p3129
tp3130
tp3131
Rp3132
sg1026
g1027
sg1028
g6
(g7
S'QString'
p3133
(V64
p3134
tp3135
tp3136
Rp3137
sg1034
g6
(g7
S'QString'
p3138
(V1
p3139
tp3140
tp3141
Rp3142
sg1040
g6
(g7
S'QString'
p3143
(V0.1
p3144
tp3145
tp3146
Rp3147
sg1046
g1047
sg1048
g6
(g7
S'QString'
p3148
(V300
p3149
tp3150
tp3151
Rp3152
sg1054
g1055
sg1056
g1057
sg1058
g6
(g7
S'QString'
p3153
(V50e-6
p3154
tp3155
tp3156
Rp3157
sg1064
g6
(g7
S'QString'
p3158
(V156876
p3159
tp3160
tp3161
Rp3162
sg1070
g6
(g7
S'QString'
p3163
(V0.0005
p3164
tp3165
tp3166
Rp3167
sg1076
g6
(g7
S'QString'
p3168
(V0.005
p3169
tp3170
tp3171
Rp3172
sg1082
g6
(g7
S'QString'
p3173
(V156876
p3174
tp3175
tp3176
Rp3177
sg1088
g1089
sg1090
g6
(g7
S'QString'
p3178
(V1e-6
p3179
tp3180
tp3181
Rp3182
sg1096
g6
(g7
S'QString'
p3183
(V5e-3
p3184
tp3185
tp3186
Rp3187
sg1102
g1103
sg1104
g6
(g7
S'QString'
p3188
(V1e9
p3189
tp3190
tp3191
Rp3192
sg1110
g6
(g7
S'QString'
p3193
(V1
p3194
tp3195
tp3196
Rp3197
sg1116
g1117
sg1118
g6
(g7
S'QString'
p3198
(V180
p3199
tp3200
tp3201
Rp3202
sg1124
g6
(g7
S'QString'
p3203
(V4
p3204
tp3205
tp3206
Rp3207
sg1130
g6
(g7
S'QString'
p3208
(V1
p3209
tp3210
tp3211
Rp3212
sg1136
g1137
sg1138
g6
(g7
S'QString'
p3213
(V2
p3214
tp3215
tp3216
Rp3217
sg1144
g6
(g7
S'QString'
p3218
(V0
p3219
tp3220
tp3221
Rp3222
sg1150
g6
(g7
S'QString'
p3223
(V0
p3224
tp3225
tp3226
Rp3227
sg1156
g1157
sg1158
g1159
sg1160
g1161
sg1162
g6
(g7
S'QString'
p3228
(V/home/admin1/scvid/Traces/A_TestFile_30fps_MGS_6EL.txt
p3229
tp3230
tp3231
Rp3232
sg1168
g1169
sg1170
g6
(g7
S'QString'
p3233
(V0
p3234
tp3235
tp3236
Rp3237
sg1176
g1177
sg1178
g1179
sg1180
g6
(g7
S'QString'
p3238
(V64
p3239
tp3240
tp3241
Rp3242
sg1186
g1187
sg1188
g6
(g7
S'QString'
p3243
(V1.0
p3244
tp3245
tp3246
Rp3247
sg1194
g1195
sg1196
g1197
sg1198
g6
(g7
S'QString'
p3248
(V1.0
p3249
tp3250
tp3251
Rp3252
sg1204
g6
(g7
S'QString'
p3253
(V0
p3254
tp3255
tp3256
Rp3257
sg1210
g6
(g7
S'QString'
p3258
(V32
p3259
tp3260
tp3261
Rp3262
sg1216
g6
(g7
S'QString'
p3263
(V32
p3264
tp3265
tp3266
Rp3267
sg1222
g6
(g7
S'QString'
p3268
(V0.1
p3269
tp3270
tp3271
Rp3272
sg1228
g6
(g7
S'QString'
p3273
(V50e-6
p3274
tp3275
tp3276
Rp3277
sg1234
g6
(g7
S'QString'
p3278
(V0.9
p3279
tp3280
tp3281
Rp3282
sg1240
g6
(g7
S'QString'
p3283
(V0.75
p3284
tp3285
tp3286
Rp3287
sg1246
g6
(g7
S'QString'
p3288
(V30.0
p3289
tp3290
tp3291
Rp3292
sg1252
g6
(g7
S'QString'
p3293
(Vtest_0093
p3294
tp3295
tp3296
Rp3297
sssS'test_0092'
p3298
(dp3299
g1009
I9886
sg1010
g1011
sg1012
(dp3300
g1014
g6
(g7
S'QString'
p3301
(V5
p3302
tp3303
tp3304
Rp3305
sg1020
g6
(g7
S'QString'
p3306
(V0
p3307
tp3308
tp3309
Rp3310
sg1026
g1027
sg1028
g6
(g7
S'QString'
p3311
(V64
p3312
tp3313
tp3314
Rp3315
sg1034
g6
(g7
S'QString'
p3316
(V1
p3317
tp3318
tp3319
Rp3320
sg1222
g6
(g7
S'QString'
p3321
(V0.1
p3322
tp3323
tp3324
Rp3325
sg1040
g6
(g7
S'QString'
p3326
(V0.1
p3327
tp3328
tp3329
Rp3330
sg1046
g1047
sg1048
g6
(g7
S'QString'
p3331
(V300
p3332
tp3333
tp3334
Rp3335
sg1198
g6
(g7
S'QString'
p3336
(V1.0
p3337
tp3338
tp3339
Rp3340
sg1064
g6
(g7
S'QString'
p3341
(V156876
p3342
tp3343
tp3344
Rp3345
sg1058
g6
(g7
S'QString'
p3346
(V50e-6
p3347
tp3348
tp3349
Rp3350
sg1056
g1057
sg1070
g6
(g7
S'QString'
p3351
(V0.0005
p3352
tp3353
tp3354
Rp3355
sg1076
g6
(g7
S'QString'
p3356
(V0.005
p3357
tp3358
tp3359
Rp3360
sg1082
g6
(g7
S'QString'
p3361
(V156876
p3362
tp3363
tp3364
Rp3365
sg1088
g1089
sg1090
g6
(g7
S'QString'
p3366
(V1e-6
p3367
tp3368
tp3369
Rp3370
sg1096
g6
(g7
S'QString'
p3371
(V5e-3
p3372
tp3373
tp3374
Rp3375
sg1234
g6
(g7
S'QString'
p3376
(V0.9
p3377
tp3378
tp3379
Rp3380
sg1104
g6
(g7
S'QString'
p3381
(V1e9
p3382
tp3383
tp3384
Rp3385
sg1110
g6
(g7
S'QString'
p3386
(V1
p3387
tp3388
tp3389
Rp3390
sg1118
g6
(g7
S'QString'
p3391
(V180
p3392
tp3393
tp3394
Rp3395
sg1124
g6
(g7
S'QString'
p3396
(V4
p3397
tp3398
tp3399
Rp3400
sg1130
g6
(g7
S'QString'
p3401
(V1
p3402
tp3403
tp3404
Rp3405
sg1136
g1137
sg1138
g6
(g7
S'QString'
p3406
(V2
p3407
tp3408
tp3409
Rp3410
sg1144
g6
(g7
S'QString'
p3411
(V0
p3412
tp3413
tp3414
Rp3415
sg1150
g6
(g7
S'QString'
p3416
(V0
p3417
tp3418
tp3419
Rp3420
sg1054
g1055
sg1156
g1157
sg1158
g1159
sg1160
g1161
sg1162
g6
(g7
S'QString'
p3421
(V/home/admin1/scvid/Traces/A_TestFile_30fps_MGS_6EL.txt
p3422
tp3423
tp3424
Rp3425
sg1168
g1169
sg1170
g6
(g7
S'QString'
p3426
(V0
p3427
tp3428
tp3429
Rp3430
sg1176
g1177
sg1178
g1179
sg1180
g6
(g7
S'QString'
p3431
(V64
p3432
tp3433
tp3434
Rp3435
sg1186
g1187
sg1188
g6
(g7
S'QString'
p3436
(V1.0
p3437
tp3438
tp3439
Rp3440
sg1194
g1195
sg1196
g1197
sg1204
g6
(g7
S'QString'
p3441
(V0
p3442
tp3443
tp3444
Rp3445
sg1210
g6
(g7
S'QString'
p3446
(V32
p3447
tp3448
tp3449
Rp3450
sg1216
g6
(g7
S'QString'
p3451
(V32
p3452
tp3453
tp3454
Rp3455
sg1116
g1117
sg1228
g6
(g7
S'QString'
p3456
(V50e-6
p3457
tp3458
tp3459
Rp3460
sg1102
g1103
sg1240
g6
(g7
S'QString'
p3461
(V0.75
p3462
tp3463
tp3464
Rp3465
sg1246
g6
(g7
S'QString'
p3466
(V30.0
p3467
tp3468
tp3469
Rp3470
sg1252
g6
(g7
S'QString'
p3471
(Vtest_0092
p3472
tp3473
tp3474
Rp3475
sss.