(dp0
S'test_0099'
p1
(dp2
S'pid'
p3
I19471
sS'host'
p4
S'localhost'
p5
sS'params'
p6
(dp7
S'SV_NUM_MA_VALUES'
p8
csip
_unpickle_type
p9
(S'PyQt4.QtCore'
p10
S'QString'
p11
(V5
p12
tp13
tp14
Rp15
sS'NUM_PREFERRED_ONU'
p16
g9
(g10
S'QString'
p17
(V0
p18
tp19
tp20
Rp21
sS'PREDICTION_TYPE'
p22
S'FFBI'
p23
sS'SCHEDULER_SLOT_SIZE'
p24
g9
(g10
S'QString'
p25
(V64
p26
tp27
tp28
Rp29
sS'START_LAMBDA'
p30
g9
(g10
S'QString'
p31
(V1
p32
tp33
tp34
Rp35
sS'START_LOAD'
p36
g9
(g10
S'QString'
p37
(V0.1
p38
tp39
tp40
Rp41
sS'LOAD_INCR'
p42
g9
(g10
S'QString'
p43
(V0.1
p44
tp45
tp46
Rp47
sS'OLT_TYPE'
p48
S'OLT_IPACT_PSF'
p49
sS'SIM_TIME'
p50
g9
(g10
S'QString'
p51
(V300
p52
tp53
tp54
Rp55
sS'SV_DROP_SENSITIVITY'
p56
g9
(g10
S'QString'
p57
(V1.0
p58
tp59
tp60
Rp61
sS'MAX_GRANT_SIZE'
p62
g9
(g10
S'QString'
p63
(V156876
p64
tp65
tp66
Rp67
sS'MAX_PROP_DELAY'
p68
g9
(g10
S'QString'
p69
(V50e-6
p70
tp71
tp72
Rp73
sS'SCALABLE_VIDEO_TRAFFIC'
p74
S'SCALABLE_VIDEO_ON'
p75
sS'SV_MIN_BOUND'
p76
g9
(g10
S'QString'
p77
(V0.0005
p78
tp79
tp80
Rp81
sS'SV_MAX_BOUND'
p82
g9
(g10
S'QString'
p83
(V0.005
p84
tp85
tp86
Rp87
sS'FIXED_GRANT_SIZE'
p88
g9
(g10
S'QString'
p89
(V156876
p90
tp91
tp92
Rp93
sS'VIDEO_DBA_TYPE'
p94
S'VIDEO_DBA_LIMITED_GATE'
p95
sS'GUARD_TIME'
p96
g9
(g10
S'QString'
p97
(V1e-6
p98
tp99
tp100
Rp101
sS'TUNING_TIME'
p102
g9
(g10
S'QString'
p103
(V5e-3
p104
tp105
tp106
Rp107
sS'END_LOAD'
p108
g9
(g10
S'QString'
p109
(V0.9
p110
tp111
tp112
Rp113
sS'LINK_SPEED'
p114
g9
(g10
S'QString'
p115
(V1e9
p116
tp117
tp118
Rp119
sS'END_LAMBDA'
p120
g9
(g10
S'QString'
p121
(V1
p122
tp123
tp124
Rp125
sS'SCHEDULER_NUM_SLOT'
p126
g9
(g10
S'QString'
p127
(V180
p128
tp129
tp130
Rp131
sS'SV_DROP_LAYER_THRESHOLD'
p132
g9
(g10
S'QString'
p133
(V4
p134
tp135
tp136
Rp137
sS'NUM_RUNS'
p138
g9
(g10
S'QString'
p139
(V1
p140
tp141
tp142
Rp143
sS'VIDEO_PREDICTION'
p144
S'VIDEO_PREDICTION_OFF'
p145
sS'HEAVY_LOAD'
p146
g9
(g10
S'QString'
p147
(V2
p148
tp149
tp150
Rp151
sS'NUM_LH_WDM_ONU'
p152
g9
(g10
S'QString'
p153
(V0
p154
tp155
tp156
Rp157
sS'NUM_UH_WDM_ONU'
p158
g9
(g10
S'QString'
p159
(V0
p160
tp161
tp162
Rp163
sS'DBA_TYPE'
p164
S'DBA_LIMITED_GATE'
p165
sS'SCALABLE_VIDEO_DROPPING_ALGORITHM'
p166
S'SCALABLE_VIDEO_DROPPING_THRESHOLD'
p167
sS'SCHEDULER_MAX_WINDOW'
p168
S'0'
p169
sS'GET_TAIL'
p170
S'GET_TAIL_OFF'
p171
sS'VIDEO_TRACE_FILE'
p172
g9
(g10
S'QString'
p173
(V/home/admin1/scvid/Traces/AA_TestFile_30fps_MGS_6EL.txt
p174
tp175
tp176
Rp177
sS'FIXED_PROP_DELAY'
p178
S'FIXED_PROP_DELAY_OFF'
p179
sS'NUM_WDM_ONU'
p180
g9
(g10
S'QString'
p181
(V0
p182
tp183
tp184
Rp185
sS'TRAFFIC_TYPE'
p186
S'TRAFFIC_POISSON'
p187
sS'GRANT_TRACE'
p188
S'GRANT_TRACE_OFF'
p189
sS'STARVE_THRESH'
p190
g9
(g10
S'QString'
p191
(V64
p192
tp193
tp194
Rp195
sS'VIDEO_RANDOM_START'
p196
S'VIDEO_RANDOM_START_OFF'
p197
sS'AVAIL_COST_WEIGHT'
p198
g9
(g10
S'QString'
p199
(V1.0
p200
tp201
tp202
Rp203
sS'TIME_SHIFT'
p204
S'0.0'
p205
sS'WDM_TYPE'
p206
S'WDM_FIXED'
p207
sS'NUM_HEAVY_ONU'
p208
g9
(g10
S'QString'
p209
(V0
p210
tp211
tp212
Rp213
sS'NUM_SS_STREAMS'
p214
g9
(g10
S'QString'
p215
(V32
p216
tp217
tp218
Rp219
sS'NUM_ONU'
p220
g9
(g10
S'QString'
p221
(V32
p222
tp223
tp224
Rp225
sS'VIDEO_TRAFFIC'
p226
S'VIDEO_TRAFFIC_ON'
p227
sS'FIXED_PROP_DELAY_VALUE'
p228
g9
(g10
S'QString'
p229
(V50e-6
p230
tp231
tp232
Rp233
sS'SIM_TRACE'
p234
S'SIM_TRACE_OFF'
p235
sS'SS_HURST_PARAM'
p236
g9
(g10
S'QString'
p237
(V0.75
p238
tp239
tp240
Rp241
sS'FRAME_RATE'
p242
g9
(g10
S'QString'
p243
(V30.0
p244
tp245
tp246
Rp247
sS'simID'
p248
g9
(g10
S'QString'
p249
(Vtest_0099
p250
tp251
tp252
Rp253
sssS'test_0098'
p254
(dp255
S'params'
p256
(dp257
S'SV_NUM_MA_VALUES'
p258
g9
(g10
S'QString'
p259
(V5
p260
tp261
tp262
Rp263
sS'NUM_PREFERRED_ONU'
p264
g9
(g10
S'QString'
p265
(V0
p266
tp267
tp268
Rp269
sS'PREDICTION_TYPE'
p270
S'FFBI'
p271
sS'SCHEDULER_SLOT_SIZE'
p272
g9
(g10
S'QString'
p273
(V64
p274
tp275
tp276
Rp277
sS'START_LAMBDA'
p278
g9
(g10
S'QString'
p279
(V1
p280
tp281
tp282
Rp283
sS'START_LOAD'
p284
g9
(g10
S'QString'
p285
(V0.1
p286
tp287
tp288
Rp289
sS'LOAD_INCR'
p290
g9
(g10
S'QString'
p291
(V0.1
p292
tp293
tp294
Rp295
sS'OLT_TYPE'
p296
S'OLT_IPACT_PSF'
p297
sS'SIM_TIME'
p298
g9
(g10
S'QString'
p299
(V300
p300
tp301
tp302
Rp303
sS'DBA_TYPE'
p304
S'DBA_LIMITED_GATE'
p305
sS'SCALABLE_VIDEO_TRAFFIC'
p306
S'SCALABLE_VIDEO_ON'
p307
sS'MAX_PROP_DELAY'
p308
g9
(g10
S'QString'
p309
(V50e-6
p310
tp311
tp312
Rp313
sS'MAX_GRANT_SIZE'
p314
g9
(g10
S'QString'
p315
(V156876
p316
tp317
tp318
Rp319
sS'SV_MIN_BOUND'
p320
g9
(g10
S'QString'
p321
(V0.0005
p322
tp323
tp324
Rp325
sS'SV_MAX_BOUND'
p326
g9
(g10
S'QString'
p327
(V0.005
p328
tp329
tp330
Rp331
sS'FIXED_GRANT_SIZE'
p332
g9
(g10
S'QString'
p333
(V156876
p334
tp335
tp336
Rp337
sS'VIDEO_DBA_TYPE'
p338
S'VIDEO_DBA_LIMITED_GATE'
p339
sS'GUARD_TIME'
p340
g9
(g10
S'QString'
p341
(V1e-6
p342
tp343
tp344
Rp345
sS'TUNING_TIME'
p346
g9
(g10
S'QString'
p347
(V5e-3
p348
tp349
tp350
Rp351
sS'END_LOAD'
p352
g9
(g10
S'QString'
p353
(V0.9
p354
tp355
tp356
Rp357
sS'LINK_SPEED'
p358
g9
(g10
S'QString'
p359
(V1e9
p360
tp361
tp362
Rp363
sS'END_LAMBDA'
p364
g9
(g10
S'QString'
p365
(V1
p366
tp367
tp368
Rp369
sS'SCHEDULER_NUM_SLOT'
p370
g9
(g10
S'QString'
p371
(V180
p372
tp373
tp374
Rp375
sS'SV_DROP_LAYER_THRESHOLD'
p376
g9
(g10
S'QString'
p377
(V4
p378
tp379
tp380
Rp381
sS'NUM_RUNS'
p382
g9
(g10
S'QString'
p383
(V1
p384
tp385
tp386
Rp387
sS'VIDEO_PREDICTION'
p388
S'VIDEO_PREDICTION_OFF'
p389
sS'HEAVY_LOAD'
p390
g9
(g10
S'QString'
p391
(V2
p392
tp393
tp394
Rp395
sS'NUM_LH_WDM_ONU'
p396
g9
(g10
S'QString'
p397
(V0
p398
tp399
tp400
Rp401
sS'NUM_UH_WDM_ONU'
p402
g9
(g10
S'QString'
p403
(V0
p404
tp405
tp406
Rp407
sS'SCALABLE_VIDEO_DROPPING_ALGORITHM'
p408
S'SCALABLE_VIDEO_DROPPING_THRESHOLD'
p409
sS'SCHEDULER_MAX_WINDOW'
p410
S'0'
p411
sS'GET_TAIL'
p412
S'GET_TAIL_OFF'
p413
sS'VIDEO_TRACE_FILE'
p414
g9
(g10
S'QString'
p415
(V/home/admin1/scvid/Traces/A_TestFile_30fps_MGS_6EL.txt
p416
tp417
tp418
Rp419
sS'FIXED_PROP_DELAY'
p420
S'FIXED_PROP_DELAY_OFF'
p421
sS'NUM_WDM_ONU'
p422
g9
(g10
S'QString'
p423
(V0
p424
tp425
tp426
Rp427
sS'TRAFFIC_TYPE'
p428
S'TRAFFIC_POISSON'
p429
sS'GRANT_TRACE'
p430
S'GRANT_TRACE_OFF'
p431
sS'STARVE_THRESH'
p432
g9
(g10
S'QString'
p433
(V64
p434
tp435
tp436
Rp437
sS'VIDEO_RANDOM_START'
p438
S'VIDEO_RANDOM_START_OFF'
p439
sS'AVAIL_COST_WEIGHT'
p440
g9
(g10
S'QString'
p441
(V1.0
p442
tp443
tp444
Rp445
sS'TIME_SHIFT'
p446
S'0.0'
p447
sS'WDM_TYPE'
p448
S'WDM_FIXED'
p449
sS'SV_DROP_SENSITIVITY'
p450
g9
(g10
S'QString'
p451
(V1.0
p452
tp453
tp454
Rp455
sS'NUM_HEAVY_ONU'
p456
g9
(g10
S'QString'
p457
(V0
p458
tp459
tp460
Rp461
sS'NUM_SS_STREAMS'
p462
g9
(g10
S'QString'
p463
(V32
p464
tp465
tp466
Rp467
sS'NUM_ONU'
p468
g9
(g10
S'QString'
p469
(V32
p470
tp471
tp472
Rp473
sS'VIDEO_TRAFFIC'
p474
S'VIDEO_TRAFFIC_ON'
p475
sS'FIXED_PROP_DELAY_VALUE'
p476
g9
(g10
S'QString'
p477
(V50e-6
p478
tp479
tp480
Rp481
sS'SIM_TRACE'
p482
S'SIM_TRACE_OFF'
p483
sS'SS_HURST_PARAM'
p484
g9
(g10
S'QString'
p485
(V0.75
p486
tp487
tp488
Rp489
sS'FRAME_RATE'
p490
g9
(g10
S'QString'
p491
(V30.0
p492
tp493
tp494
Rp495
sS'simID'
p496
g9
(g10
S'QString'
p497
(Vtest_0098
p498
tp499
tp500
Rp501
ssS'host'
p502
S'localhost'
p503
sS'pid'
p504
I10860
ssS'test_0117'
p505
(dp506
S'pid'
p507
I15178
sS'host'
p508
S'localhost'
p509
sS'params'
p510
(dp511
S'SV_NUM_MA_VALUES'
p512
g9
(g10
S'QString'
p513
(V5
p514
tp515
tp516
Rp517
sS'NUM_PREFERRED_ONU'
p518
g9
(g10
S'QString'
p519
(V0
p520
tp521
tp522
Rp523
sS'PREDICTION_TYPE'
p524
S'FFBI'
p525
sS'SCHEDULER_SLOT_SIZE'
p526
g9
(g10
S'QString'
p527
(V64
p528
tp529
tp530
Rp531
sS'START_LAMBDA'
p532
g9
(g10
S'QString'
p533
(V1
p534
tp535
tp536
Rp537
sS'START_LOAD'
p538
g9
(g10
S'QString'
p539
(V0.1
p540
tp541
tp542
Rp543
sS'LOAD_INCR'
p544
g9
(g10
S'QString'
p545
(V0.1
p546
tp547
tp548
Rp549
sS'OLT_TYPE'
p550
S'OLT_IPACT_PSF'
p551
sS'SIM_TIME'
p552
g9
(g10
S'QString'
p553
(V300
p554
tp555
tp556
Rp557
sS'SV_DROP_SENSITIVITY'
p558
g9
(g10
S'QString'
p559
(V1.0
p560
tp561
tp562
Rp563
sS'MAX_GRANT_SIZE'
p564
g9
(g10
S'QString'
p565
(V156876
p566
tp567
tp568
Rp569
sS'MAX_PROP_DELAY'
p570
g9
(g10
S'QString'
p571
(V50e-6
p572
tp573
tp574
Rp575
sS'SCALABLE_VIDEO_TRAFFIC'
p576
S'SCALABLE_VIDEO_ON'
p577
sS'SV_MIN_BOUND'
p578
g9
(g10
S'QString'
p579
(V0.0005
p580
tp581
tp582
Rp583
sS'SV_MAX_BOUND'
p584
g9
(g10
S'QString'
p585
(V0.005
p586
tp587
tp588
Rp589
sS'FIXED_GRANT_SIZE'
p590
g9
(g10
S'QString'
p591
(V156876
p592
tp593
tp594
Rp595
sS'VIDEO_DBA_TYPE'
p596
S'VIDEO_DBA_LIMITED_GATE'
p597
sS'GUARD_TIME'
p598
g9
(g10
S'QString'
p599
(V1e-6
p600
tp601
tp602
Rp603
sS'TUNING_TIME'
p604
g9
(g10
S'QString'
p605
(V5e-3
p606
tp607
tp608
Rp609
sS'END_LOAD'
p610
g9
(g10
S'QString'
p611
(V0.9
p612
tp613
tp614
Rp615
sS'LINK_SPEED'
p616
g9
(g10
S'QString'
p617
(V1e9
p618
tp619
tp620
Rp621
sS'END_LAMBDA'
p622
g9
(g10
S'QString'
p623
(V1
p624
tp625
tp626
Rp627
sS'SCHEDULER_NUM_SLOT'
p628
g9
(g10
S'QString'
p629
(V180
p630
tp631
tp632
Rp633
sS'SV_DROP_LAYER_THRESHOLD'
p634
g9
(g10
S'QString'
p635
(V4
p636
tp637
tp638
Rp639
sS'NUM_RUNS'
p640
g9
(g10
S'QString'
p641
(V1
p642
tp643
tp644
Rp645
sS'VIDEO_PREDICTION'
p646
S'VIDEO_PREDICTION_OFF'
p647
sS'HEAVY_LOAD'
p648
g9
(g10
S'QString'
p649
(V2
p650
tp651
tp652
Rp653
sS'NUM_LH_WDM_ONU'
p654
g9
(g10
S'QString'
p655
(V0
p656
tp657
tp658
Rp659
sS'NUM_UH_WDM_ONU'
p660
g9
(g10
S'QString'
p661
(V0
p662
tp663
tp664
Rp665
sS'DBA_TYPE'
p666
S'DBA_LIMITED_GATE'
p667
sS'SCALABLE_VIDEO_DROPPING_ALGORITHM'
p668
S'SCALABLE_VIDEO_DROPPING_CFDL_MFAC'
p669
sS'SCHEDULER_MAX_WINDOW'
p670
S'0'
p671
sS'GET_TAIL'
p672
S'GET_TAIL_OFF'
p673
sS'VIDEO_TRACE_FILE'
p674
g9
(g10
S'QString'
p675
(V/home/admin1/scvid/Traces/287_TestFile_30fps_MGS_6EL.txt
p676
tp677
tp678
Rp679
sS'FIXED_PROP_DELAY'
p680
S'FIXED_PROP_DELAY_OFF'
p681
sS'NUM_WDM_ONU'
p682
g9
(g10
S'QString'
p683
(V0
p684
tp685
tp686
Rp687
sS'TRAFFIC_TYPE'
p688
S'TRAFFIC_POISSON'
p689
sS'GRANT_TRACE'
p690
S'GRANT_TRACE_OFF'
p691
sS'STARVE_THRESH'
p692
g9
(g10
S'QString'
p693
(V64
p694
tp695
tp696
Rp697
sS'VIDEO_RANDOM_START'
p698
S'VIDEO_RANDOM_START_OFF'
p699
sS'AVAIL_COST_WEIGHT'
p700
g9
(g10
S'QString'
p701
(V1.0
p702
tp703
tp704
Rp705
sS'TIME_SHIFT'
p706
S'0.0'
p707
sS'WDM_TYPE'
p708
S'WDM_FIXED'
p709
sS'NUM_HEAVY_ONU'
p710
g9
(g10
S'QString'
p711
(V0
p712
tp713
tp714
Rp715
sS'NUM_SS_STREAMS'
p716
g9
(g10
S'QString'
p717
(V32
p718
tp719
tp720
Rp721
sS'NUM_ONU'
p722
g9
(g10
S'QString'
p723
(V32
p724
tp725
tp726
Rp727
sS'VIDEO_TRAFFIC'
p728
S'VIDEO_TRAFFIC_ON'
p729
sS'FIXED_PROP_DELAY_VALUE'
p730
g9
(g10
S'QString'
p731
(V50e-6
p732
tp733
tp734
Rp735
sS'SIM_TRACE'
p736
S'SIM_TRACE_OFF'
p737
sS'SS_HURST_PARAM'
p738
g9
(g10
S'QString'
p739
(V0.75
p740
tp741
tp742
Rp743
sS'FRAME_RATE'
p744
g9
(g10
S'QString'
p745
(V30.0
p746
tp747
tp748
Rp749
sS'simID'
p750
g9
(g10
S'QString'
p751
(Vtest_0117
p752
tp753
tp754
Rp755
sssS'test_0097'
p756
(dp757
g256
(dp758
g258
g9
(g10
S'QString'
p759
(V5
p760
tp761
tp762
Rp763
sg264
g9
(g10
S'QString'
p764
(V0
p765
tp766
tp767
Rp768
sg270
g271
sg272
g9
(g10
S'QString'
p769
(V64
p770
tp771
tp772
Rp773
sg278
g9
(g10
S'QString'
p774
(V1
p775
tp776
tp777
Rp778
sg290
g9
(g10
S'QString'
p779
(V0.1
p780
tp781
tp782
Rp783
sg296
g297
sg298
g9
(g10
S'QString'
p784
(V300
p785
tp786
tp787
Rp788
sg450
g9
(g10
S'QString'
p789
(V1.0
p790
tp791
tp792
Rp793
sg314
g9
(g10
S'QString'
p794
(V156876
p795
tp796
tp797
Rp798
sg308
g9
(g10
S'QString'
p799
(V50e-6
p800
tp801
tp802
Rp803
sg306
g307
sg320
g9
(g10
S'QString'
p804
(V0.0005
p805
tp806
tp807
Rp808
sg326
g9
(g10
S'QString'
p809
(V0.005
p810
tp811
tp812
Rp813
sg332
g9
(g10
S'QString'
p814
(V156876
p815
tp816
tp817
Rp818
sg338
g339
sg340
g9
(g10
S'QString'
p819
(V1e-6
p820
tp821
tp822
Rp823
sg346
g9
(g10
S'QString'
p824
(V5e-3
p825
tp826
tp827
Rp828
sg482
g483
sg358
g9
(g10
S'QString'
p829
(V1e9
p830
tp831
tp832
Rp833
sg364
g9
(g10
S'QString'
p834
(V1
p835
tp836
tp837
Rp838
sg474
g475
sg370
g9
(g10
S'QString'
p839
(V180
p840
tp841
tp842
Rp843
sg376
g9
(g10
S'QString'
p844
(V4
p845
tp846
tp847
Rp848
sg382
g9
(g10
S'QString'
p849
(V1
p850
tp851
tp852
Rp853
sg388
g389
sg390
g9
(g10
S'QString'
p854
(V2
p855
tp856
tp857
Rp858
sg396
g9
(g10
S'QString'
p859
(V0
p860
tp861
tp862
Rp863
sg402
g9
(g10
S'QString'
p864
(V0
p865
tp866
tp867
Rp868
sg304
g305
sg408
g409
sg410
g411
sg412
g413
sg414
g9
(g10
S'QString'
p869
(V/home/admin1/scvid/Traces/A_TestFile_30fps_MGS_6EL.txt
p870
tp871
tp872
Rp873
sg420
g421
sg422
g9
(g10
S'QString'
p874
(V0
p875
tp876
tp877
Rp878
sg428
g429
sg430
g431
sg432
g9
(g10
S'QString'
p879
(V64
p880
tp881
tp882
Rp883
sg438
g439
sg440
g9
(g10
S'QString'
p884
(V1.0
p885
tp886
tp887
Rp888
sg446
g447
sg448
g449
sg456
g9
(g10
S'QString'
p889
(V0
p890
tp891
tp892
Rp893
sg462
g9
(g10
S'QString'
p894
(V32
p895
tp896
tp897
Rp898
sg468
g9
(g10
S'QString'
p899
(V32
p900
tp901
tp902
Rp903
sg284
g9
(g10
S'QString'
p904
(V0.1
p905
tp906
tp907
Rp908
sg476
g9
(g10
S'QString'
p909
(V50e-6
p910
tp911
tp912
Rp913
sg352
g9
(g10
S'QString'
p914
(V0.9
p915
tp916
tp917
Rp918
sg484
g9
(g10
S'QString'
p919
(V0.75
p920
tp921
tp922
Rp923
sg490
g9
(g10
S'QString'
p924
(V30.0
p925
tp926
tp927
Rp928
sg496
g9
(g10
S'QString'
p929
(Vtest_0097
p930
tp931
tp932
Rp933
ssg502
g503
sg504
I10810
ssS'test_0106'
p934
(dp935
S'pid'
p936
I30834
sS'host'
p937
S'localhost'
p938
sS'params'
p939
(dp940
S'SV_NUM_MA_VALUES'
p941
g9
(g10
S'QString'
p942
(V5
p943
tp944
tp945
Rp946
sS'NUM_PREFERRED_ONU'
p947
g9
(g10
S'QString'
p948
(V0
p949
tp950
tp951
Rp952
sS'PREDICTION_TYPE'
p953
S'FFBI'
p954
sS'SCHEDULER_SLOT_SIZE'
p955
g9
(g10
S'QString'
p956
(V64
p957
tp958
tp959
Rp960
sS'START_LAMBDA'
p961
g9
(g10
S'QString'
p962
(V1
p963
tp964
tp965
Rp966
sS'START_LOAD'
p967
g9
(g10
S'QString'
p968
(V0.1
p969
tp970
tp971
Rp972
sS'LOAD_INCR'
p973
g9
(g10
S'QString'
p974
(V0.1
p975
tp976
tp977
Rp978
sS'OLT_TYPE'
p979
S'OLT_IPACT_PSF'
p980
sS'SIM_TIME'
p981
g9
(g10
S'QString'
p982
(V300
p983
tp984
tp985
Rp986
sS'SV_DROP_SENSITIVITY'
p987
g9
(g10
S'QString'
p988
(V1.0
p989
tp990
tp991
Rp992
sS'MAX_GRANT_SIZE'
p993
g9
(g10
S'QString'
p994
(V156876
p995
tp996
tp997
Rp998
sS'MAX_PROP_DELAY'
p999
g9
(g10
S'QString'
p1000
(V50e-6
p1001
tp1002
tp1003
Rp1004
sS'SCALABLE_VIDEO_TRAFFIC'
p1005
S'SCALABLE_VIDEO_ON'
p1006
sS'SV_MIN_BOUND'
p1007
g9
(g10
S'QString'
p1008
(V0.0005
p1009
tp1010
tp1011
Rp1012
sS'SV_MAX_BOUND'
p1013
g9
(g10
S'QString'
p1014
(V0.005
p1015
tp1016
tp1017
Rp1018
sS'FIXED_GRANT_SIZE'
p1019
g9
(g10
S'QString'
p1020
(V156876
p1021
tp1022
tp1023
Rp1024
sS'VIDEO_DBA_TYPE'
p1025
S'VIDEO_DBA_LIMITED_GATE'
p1026
sS'GUARD_TIME'
p1027
g9
(g10
S'QString'
p1028
(V1e-6
p1029
tp1030
tp1031
Rp1032
sS'TUNING_TIME'
p1033
g9
(g10
S'QString'
p1034
(V5e-3
p1035
tp1036
tp1037
Rp1038
sS'END_LOAD'
p1039
g9
(g10
S'QString'
p1040
(V0.9
p1041
tp1042
tp1043
Rp1044
sS'LINK_SPEED'
p1045
g9
(g10
S'QString'
p1046
(V1e9
p1047
tp1048
tp1049
Rp1050
sS'END_LAMBDA'
p1051
g9
(g10
S'QString'
p1052
(V1
p1053
tp1054
tp1055
Rp1056
sS'SCHEDULER_NUM_SLOT'
p1057
g9
(g10
S'QString'
p1058
(V180
p1059
tp1060
tp1061
Rp1062
sS'SV_DROP_LAYER_THRESHOLD'
p1063
g9
(g10
S'QString'
p1064
(V4
p1065
tp1066
tp1067
Rp1068
sS'NUM_RUNS'
p1069
g9
(g10
S'QString'
p1070
(V1
p1071
tp1072
tp1073
Rp1074
sS'VIDEO_PREDICTION'
p1075
S'VIDEO_PREDICTION_OFF'
p1076
sS'HEAVY_LOAD'
p1077
g9
(g10
S'QString'
p1078
(V2
p1079
tp1080
tp1081
Rp1082
sS'NUM_LH_WDM_ONU'
p1083
g9
(g10
S'QString'
p1084
(V0
p1085
tp1086
tp1087
Rp1088
sS'NUM_UH_WDM_ONU'
p1089
g9
(g10
S'QString'
p1090
(V0
p1091
tp1092
tp1093
Rp1094
sS'DBA_TYPE'
p1095
S'DBA_LIMITED_GATE'
p1096
sS'SCALABLE_VIDEO_DROPPING_ALGORITHM'
p1097
S'SCALABLE_VIDEO_DROPPING_CFDL_MFAC'
p1098
sS'SCHEDULER_MAX_WINDOW'
p1099
S'0'
p1100
sS'GET_TAIL'
p1101
S'GET_TAIL_OFF'
p1102
sS'VIDEO_TRACE_FILE'
p1103
g9
(g10
S'QString'
p1104
(V/home/admin1/scvid/Traces/AA_TestFile_30fps_MGS_6EL.txt
p1105
tp1106
tp1107
Rp1108
sS'FIXED_PROP_DELAY'
p1109
S'FIXED_PROP_DELAY_OFF'
p1110
sS'NUM_WDM_ONU'
p1111
g9
(g10
S'QString'
p1112
(V0
p1113
tp1114
tp1115
Rp1116
sS'TRAFFIC_TYPE'
p1117
S'TRAFFIC_POISSON'
p1118
sS'GRANT_TRACE'
p1119
S'GRANT_TRACE_OFF'
p1120
sS'STARVE_THRESH'
p1121
g9
(g10
S'QString'
p1122
(V64
p1123
tp1124
tp1125
Rp1126
sS'VIDEO_RANDOM_START'
p1127
S'VIDEO_RANDOM_START_OFF'
p1128
sS'AVAIL_COST_WEIGHT'
p1129
g9
(g10
S'QString'
p1130
(V1.0
p1131
tp1132
tp1133
Rp1134
sS'TIME_SHIFT'
p1135
S'0.0'
p1136
sS'WDM_TYPE'
p1137
S'WDM_FIXED'
p1138
sS'NUM_HEAVY_ONU'
p1139
g9
(g10
S'QString'
p1140
(V0
p1141
tp1142
tp1143
Rp1144
sS'NUM_SS_STREAMS'
p1145
g9
(g10
S'QString'
p1146
(V32
p1147
tp1148
tp1149
Rp1150
sS'NUM_ONU'
p1151
g9
(g10
S'QString'
p1152
(V32
p1153
tp1154
tp1155
Rp1156
sS'VIDEO_TRAFFIC'
p1157
S'VIDEO_TRAFFIC_ON'
p1158
sS'FIXED_PROP_DELAY_VALUE'
p1159
g9
(g10
S'QString'
p1160
(V50e-6
p1161
tp1162
tp1163
Rp1164
sS'SIM_TRACE'
p1165
S'SIM_TRACE_OFF'
p1166
sS'SS_HURST_PARAM'
p1167
g9
(g10
S'QString'
p1168
(V0.75
p1169
tp1170
tp1171
Rp1172
sS'FRAME_RATE'
p1173
g9
(g10
S'QString'
p1174
(V30.0
p1175
tp1176
tp1177
Rp1178
sS'simID'
p1179
g9
(g10
S'QString'
p1180
(Vtest_0106
p1181
tp1182
tp1183
Rp1184
sssS'test_0109'
p1185
(dp1186
S'pid'
p1187
I10198
sS'host'
p1188
S'localhost'
p1189
sS'params'
p1190
(dp1191
S'SV_NUM_MA_VALUES'
p1192
g9
(g10
S'QString'
p1193
(V5
p1194
tp1195
tp1196
Rp1197
sS'NUM_PREFERRED_ONU'
p1198
g9
(g10
S'QString'
p1199
(V0
p1200
tp1201
tp1202
Rp1203
sS'PREDICTION_TYPE'
p1204
S'FFBI'
p1205
sS'SCHEDULER_SLOT_SIZE'
p1206
g9
(g10
S'QString'
p1207
(V64
p1208
tp1209
tp1210
Rp1211
sS'START_LAMBDA'
p1212
g9
(g10
S'QString'
p1213
(V1
p1214
tp1215
tp1216
Rp1217
sS'START_LOAD'
p1218
g9
(g10
S'QString'
p1219
(V0.1
p1220
tp1221
tp1222
Rp1223
sS'LOAD_INCR'
p1224
g9
(g10
S'QString'
p1225
(V0.1
p1226
tp1227
tp1228
Rp1229
sS'OLT_TYPE'
p1230
S'OLT_IPACT_PSF'
p1231
sS'SIM_TIME'
p1232
g9
(g10
S'QString'
p1233
(V300
p1234
tp1235
tp1236
Rp1237
sS'SV_DROP_SENSITIVITY'
p1238
g9
(g10
S'QString'
p1239
(V1.0
p1240
tp1241
tp1242
Rp1243
sS'MAX_GRANT_SIZE'
p1244
g9
(g10
S'QString'
p1245
(V156876
p1246
tp1247
tp1248
Rp1249
sS'MAX_PROP_DELAY'
p1250
g9
(g10
S'QString'
p1251
(V50e-6
p1252
tp1253
tp1254
Rp1255
sS'SCALABLE_VIDEO_TRAFFIC'
p1256
S'SCALABLE_VIDEO_ON'
p1257
sS'SV_MIN_BOUND'
p1258
g9
(g10
S'QString'
p1259
(V0.0005
p1260
tp1261
tp1262
Rp1263
sS'SV_MAX_BOUND'
p1264
g9
(g10
S'QString'
p1265
(V0.005
p1266
tp1267
tp1268
Rp1269
sS'FIXED_GRANT_SIZE'
p1270
g9
(g10
S'QString'
p1271
(V156876
p1272
tp1273
tp1274
Rp1275
sS'VIDEO_DBA_TYPE'
p1276
S'VIDEO_DBA_LIMITED_GATE'
p1277
sS'GUARD_TIME'
p1278
g9
(g10
S'QString'
p1279
(V1e-6
p1280
tp1281
tp1282
Rp1283
sS'TUNING_TIME'
p1284
g9
(g10
S'QString'
p1285
(V5e-3
p1286
tp1287
tp1288
Rp1289
sS'END_LOAD'
p1290
g9
(g10
S'QString'
p1291
(V0.9
p1292
tp1293
tp1294
Rp1295
sS'LINK_SPEED'
p1296
g9
(g10
S'QString'
p1297
(V1e9
p1298
tp1299
tp1300
Rp1301
sS'END_LAMBDA'
p1302
g9
(g10
S'QString'
p1303
(V1
p1304
tp1305
tp1306
Rp1307
sS'SCHEDULER_NUM_SLOT'
p1308
g9
(g10
S'QString'
p1309
(V180
p1310
tp1311
tp1312
Rp1313
sS'SV_DROP_LAYER_THRESHOLD'
p1314
g9
(g10
S'QString'
p1315
(V4
p1316
tp1317
tp1318
Rp1319
sS'NUM_RUNS'
p1320
g9
(g10
S'QString'
p1321
(V1
p1322
tp1323
tp1324
Rp1325
sS'VIDEO_PREDICTION'
p1326
S'VIDEO_PREDICTION_OFF'
p1327
sS'HEAVY_LOAD'
p1328
g9
(g10
S'QString'
p1329
(V2
p1330
tp1331
tp1332
Rp1333
sS'NUM_LH_WDM_ONU'
p1334
g9
(g10
S'QString'
p1335
(V0
p1336
tp1337
tp1338
Rp1339
sS'NUM_UH_WDM_ONU'
p1340
g9
(g10
S'QString'
p1341
(V0
p1342
tp1343
tp1344
Rp1345
sS'DBA_TYPE'
p1346
S'DBA_LIMITED_GATE'
p1347
sS'SCALABLE_VIDEO_DROPPING_ALGORITHM'
p1348
S'SCALABLE_VIDEO_DROPPING_CFDL_MFAC'
p1349
sS'SCHEDULER_MAX_WINDOW'
p1350
S'0'
p1351
sS'GET_TAIL'
p1352
S'GET_TAIL_OFF'
p1353
sS'VIDEO_TRACE_FILE'
p1354
g9
(g10
S'QString'
p1355
(V/home/admin1/scvid/Traces/287_TestFile_30fps_MGS_6EL.txt
p1356
tp1357
tp1358
Rp1359
sS'FIXED_PROP_DELAY'
p1360
S'FIXED_PROP_DELAY_OFF'
p1361
sS'NUM_WDM_ONU'
p1362
g9
(g10
S'QString'
p1363
(V0
p1364
tp1365
tp1366
Rp1367
sS'TRAFFIC_TYPE'
p1368
S'TRAFFIC_POISSON'
p1369
sS'GRANT_TRACE'
p1370
S'GRANT_TRACE_OFF'
p1371
sS'STARVE_THRESH'
p1372
g9
(g10
S'QString'
p1373
(V64
p1374
tp1375
tp1376
Rp1377
sS'VIDEO_RANDOM_START'
p1378
S'VIDEO_RANDOM_START_OFF'
p1379
sS'AVAIL_COST_WEIGHT'
p1380
g9
(g10
S'QString'
p1381
(V1.0
p1382
tp1383
tp1384
Rp1385
sS'TIME_SHIFT'
p1386
S'0.0'
p1387
sS'WDM_TYPE'
p1388
S'WDM_FIXED'
p1389
sS'NUM_HEAVY_ONU'
p1390
g9
(g10
S'QString'
p1391
(V0
p1392
tp1393
tp1394
Rp1395
sS'NUM_SS_STREAMS'
p1396
g9
(g10
S'QString'
p1397
(V32
p1398
tp1399
tp1400
Rp1401
sS'NUM_ONU'
p1402
g9
(g10
S'QString'
p1403
(V32
p1404
tp1405
tp1406
Rp1407
sS'VIDEO_TRAFFIC'
p1408
S'VIDEO_TRAFFIC_ON'
p1409
sS'FIXED_PROP_DELAY_VALUE'
p1410
g9
(g10
S'QString'
p1411
(V50e-6
p1412
tp1413
tp1414
Rp1415
sS'SIM_TRACE'
p1416
S'SIM_TRACE_OFF'
p1417
sS'SS_HURST_PARAM'
p1418
g9
(g10
S'QString'
p1419
(V0.75
p1420
tp1421
tp1422
Rp1423
sS'FRAME_RATE'
p1424
g9
(g10
S'QString'
p1425
(V30.0
p1426
tp1427
tp1428
Rp1429
sS'simID'
p1430
g9
(g10
S'QString'
p1431
(Vtest_0109
p1432
tp1433
tp1434
Rp1435
sssS'test_0108'
p1436
(dp1437
S'params'
p1438
(dp1439
S'SV_NUM_MA_VALUES'
p1440
g9
(g10
S'QString'
p1441
(V5
p1442
tp1443
tp1444
Rp1445
sS'NUM_PREFERRED_ONU'
p1446
g9
(g10
S'QString'
p1447
(V0
p1448
tp1449
tp1450
Rp1451
sS'PREDICTION_TYPE'
p1452
S'FFBI'
p1453
sS'SCHEDULER_SLOT_SIZE'
p1454
g9
(g10
S'QString'
p1455
(V64
p1456
tp1457
tp1458
Rp1459
sS'START_LAMBDA'
p1460
g9
(g10
S'QString'
p1461
(V1
p1462
tp1463
tp1464
Rp1465
sS'LOAD_INCR'
p1466
g9
(g10
S'QString'
p1467
(V0.1
p1468
tp1469
tp1470
Rp1471
sS'OLT_TYPE'
p1472
S'OLT_IPACT_PSF'
p1473
sS'SIM_TIME'
p1474
g9
(g10
S'QString'
p1475
(V300
p1476
tp1477
tp1478
Rp1479
sS'SV_DROP_SENSITIVITY'
p1480
g9
(g10
S'QString'
p1481
(V1.0
p1482
tp1483
tp1484
Rp1485
sS'MAX_GRANT_SIZE'
p1486
g9
(g10
S'QString'
p1487
(V156876
p1488
tp1489
tp1490
Rp1491
sS'MAX_PROP_DELAY'
p1492
g9
(g10
S'QString'
p1493
(V50e-6
p1494
tp1495
tp1496
Rp1497
sS'SCALABLE_VIDEO_TRAFFIC'
p1498
S'SCALABLE_VIDEO_ON'
p1499
sS'SV_MIN_BOUND'
p1500
g9
(g10
S'QString'
p1501
(V0.0005
p1502
tp1503
tp1504
Rp1505
sS'SV_MAX_BOUND'
p1506
g9
(g10
S'QString'
p1507
(V0.005
p1508
tp1509
tp1510
Rp1511
sS'FIXED_GRANT_SIZE'
p1512
g9
(g10
S'QString'
p1513
(V156876
p1514
tp1515
tp1516
Rp1517
sS'VIDEO_DBA_TYPE'
p1518
S'VIDEO_DBA_LIMITED_GATE'
p1519
sS'GUARD_TIME'
p1520
g9
(g10
S'QString'
p1521
(V1e-6
p1522
tp1523
tp1524
Rp1525
sS'TUNING_TIME'
p1526
g9
(g10
S'QString'
p1527
(V5e-3
p1528
tp1529
tp1530
Rp1531
sS'SIM_TRACE'
p1532
S'SIM_TRACE_OFF'
p1533
sS'LINK_SPEED'
p1534
g9
(g10
S'QString'
p1535
(V1e9
p1536
tp1537
tp1538
Rp1539
sS'END_LAMBDA'
p1540
g9
(g10
S'QString'
p1541
(V1
p1542
tp1543
tp1544
Rp1545
sS'VIDEO_TRAFFIC'
p1546
S'VIDEO_TRAFFIC_ON'
p1547
sS'SCHEDULER_NUM_SLOT'
p1548
g9
(g10
S'QString'
p1549
(V180
p1550
tp1551
tp1552
Rp1553
sS'SV_DROP_LAYER_THRESHOLD'
p1554
g9
(g10
S'QString'
p1555
(V4
p1556
tp1557
tp1558
Rp1559
sS'NUM_RUNS'
p1560
g9
(g10
S'QString'
p1561
(V1
p1562
tp1563
tp1564
Rp1565
sS'VIDEO_PREDICTION'
p1566
S'VIDEO_PREDICTION_OFF'
p1567
sS'HEAVY_LOAD'
p1568
g9
(g10
S'QString'
p1569
(V2
p1570
tp1571
tp1572
Rp1573
sS'NUM_LH_WDM_ONU'
p1574
g9
(g10
S'QString'
p1575
(V0
p1576
tp1577
tp1578
Rp1579
sS'NUM_UH_WDM_ONU'
p1580
g9
(g10
S'QString'
p1581
(V0
p1582
tp1583
tp1584
Rp1585
sS'DBA_TYPE'
p1586
S'DBA_LIMITED_GATE'
p1587
sS'SCALABLE_VIDEO_DROPPING_ALGORITHM'
p1588
S'SCALABLE_VIDEO_DROPPING_CFDL_MFAC'
p1589
sS'SCHEDULER_MAX_WINDOW'
p1590
S'0'
p1591
sS'GET_TAIL'
p1592
S'GET_TAIL_OFF'
p1593
sS'VIDEO_TRACE_FILE'
p1594
g9
(g10
S'QString'
p1595
(V/home/admin1/scvid/Traces/287_TestFile_30fps_MGS_6EL.txt
p1596
tp1597
tp1598
Rp1599
sS'FIXED_PROP_DELAY'
p1600
S'FIXED_PROP_DELAY_OFF'
p1601
sS'NUM_WDM_ONU'
p1602
g9
(g10
S'QString'
p1603
(V0
p1604
tp1605
tp1606
Rp1607
sS'TRAFFIC_TYPE'
p1608
S'TRAFFIC_POISSON'
p1609
sS'GRANT_TRACE'
p1610
S'GRANT_TRACE_OFF'
p1611
sS'STARVE_THRESH'
p1612
g9
(g10
S'QString'
p1613
(V64
p1614
tp1615
tp1616
Rp1617
sS'VIDEO_RANDOM_START'
p1618
S'VIDEO_RANDOM_START_OFF'
p1619
sS'AVAIL_COST_WEIGHT'
p1620
g9
(g10
S'QString'
p1621
(V1.0
p1622
tp1623
tp1624
Rp1625
sS'TIME_SHIFT'
p1626
S'0.0'
p1627
sS'WDM_TYPE'
p1628
S'WDM_FIXED'
p1629
sS'NUM_HEAVY_ONU'
p1630
g9
(g10
S'QString'
p1631
(V0
p1632
tp1633
tp1634
Rp1635
sS'NUM_SS_STREAMS'
p1636
g9
(g10
S'QString'
p1637
(V32
p1638
tp1639
tp1640
Rp1641
sS'NUM_ONU'
p1642
g9
(g10
S'QString'
p1643
(V32
p1644
tp1645
tp1646
Rp1647
sS'START_LOAD'
p1648
g9
(g10
S'QString'
p1649
(V0.1
p1650
tp1651
tp1652
Rp1653
sS'FIXED_PROP_DELAY_VALUE'
p1654
g9
(g10
S'QString'
p1655
(V50e-6
p1656
tp1657
tp1658
Rp1659
sS'END_LOAD'
p1660
g9
(g10
S'QString'
p1661
(V0.9
p1662
tp1663
tp1664
Rp1665
sS'SS_HURST_PARAM'
p1666
g9
(g10
S'QString'
p1667
(V0.75
p1668
tp1669
tp1670
Rp1671
sS'FRAME_RATE'
p1672
g9
(g10
S'QString'
p1673
(V30.0
p1674
tp1675
tp1676
Rp1677
sS'simID'
p1678
g9
(g10
S'QString'
p1679
(Vtest_0108
p1680
tp1681
tp1682
Rp1683
ssS'host'
p1684
S'localhost'
p1685
sS'pid'
p1686
I9161
ssS'test_0115'
p1687
(dp1688
S'pid'
p1689
I13477
sS'host'
p1690
S'localhost'
p1691
sS'params'
p1692
(dp1693
S'SV_NUM_MA_VALUES'
p1694
g9
(g10
S'QString'
p1695
(V5
p1696
tp1697
tp1698
Rp1699
sS'NUM_PREFERRED_ONU'
p1700
g9
(g10
S'QString'
p1701
(V0
p1702
tp1703
tp1704
Rp1705
sS'PREDICTION_TYPE'
p1706
S'FFBI'
p1707
sS'SCHEDULER_SLOT_SIZE'
p1708
g9
(g10
S'QString'
p1709
(V64
p1710
tp1711
tp1712
Rp1713
sS'START_LAMBDA'
p1714
g9
(g10
S'QString'
p1715
(V1
p1716
tp1717
tp1718
Rp1719
sS'START_LOAD'
p1720
g9
(g10
S'QString'
p1721
(V0.1
p1722
tp1723
tp1724
Rp1725
sS'LOAD_INCR'
p1726
g9
(g10
S'QString'
p1727
(V0.1
p1728
tp1729
tp1730
Rp1731
sS'OLT_TYPE'
p1732
S'OLT_IPACT_PSF'
p1733
sS'SIM_TIME'
p1734
g9
(g10
S'QString'
p1735
(V300
p1736
tp1737
tp1738
Rp1739
sS'SV_DROP_SENSITIVITY'
p1740
g9
(g10
S'QString'
p1741
(V1.0
p1742
tp1743
tp1744
Rp1745
sS'MAX_GRANT_SIZE'
p1746
g9
(g10
S'QString'
p1747
(V156876
p1748
tp1749
tp1750
Rp1751
sS'MAX_PROP_DELAY'
p1752
g9
(g10
S'QString'
p1753
(V50e-6
p1754
tp1755
tp1756
Rp1757
sS'SCALABLE_VIDEO_TRAFFIC'
p1758
S'SCALABLE_VIDEO_ON'
p1759
sS'SV_MIN_BOUND'
p1760
g9
(g10
S'QString'
p1761
(V0.0005
p1762
tp1763
tp1764
Rp1765
sS'SV_MAX_BOUND'
p1766
g9
(g10
S'QString'
p1767
(V0.005
p1768
tp1769
tp1770
Rp1771
sS'FIXED_GRANT_SIZE'
p1772
g9
(g10
S'QString'
p1773
(V156876
p1774
tp1775
tp1776
Rp1777
sS'VIDEO_DBA_TYPE'
p1778
S'VIDEO_DBA_LIMITED_GATE'
p1779
sS'GUARD_TIME'
p1780
g9
(g10
S'QString'
p1781
(V1e-6
p1782
tp1783
tp1784
Rp1785
sS'TUNING_TIME'
p1786
g9
(g10
S'QString'
p1787
(V5e-3
p1788
tp1789
tp1790
Rp1791
sS'END_LOAD'
p1792
g9
(g10
S'QString'
p1793
(V0.9
p1794
tp1795
tp1796
Rp1797
sS'LINK_SPEED'
p1798
g9
(g10
S'QString'
p1799
(V1e9
p1800
tp1801
tp1802
Rp1803
sS'END_LAMBDA'
p1804
g9
(g10
S'QString'
p1805
(V1
p1806
tp1807
tp1808
Rp1809
sS'SCHEDULER_NUM_SLOT'
p1810
g9
(g10
S'QString'
p1811
(V180
p1812
tp1813
tp1814
Rp1815
sS'SV_DROP_LAYER_THRESHOLD'
p1816
g9
(g10
S'QString'
p1817
(V4
p1818
tp1819
tp1820
Rp1821
sS'NUM_RUNS'
p1822
g9
(g10
S'QString'
p1823
(V1
p1824
tp1825
tp1826
Rp1827
sS'VIDEO_PREDICTION'
p1828
S'VIDEO_PREDICTION_OFF'
p1829
sS'HEAVY_LOAD'
p1830
g9
(g10
S'QString'
p1831
(V2
p1832
tp1833
tp1834
Rp1835
sS'NUM_LH_WDM_ONU'
p1836
g9
(g10
S'QString'
p1837
(V0
p1838
tp1839
tp1840
Rp1841
sS'NUM_UH_WDM_ONU'
p1842
g9
(g10
S'QString'
p1843
(V0
p1844
tp1845
tp1846
Rp1847
sS'DBA_TYPE'
p1848
S'DBA_LIMITED_GATE'
p1849
sS'SCALABLE_VIDEO_DROPPING_ALGORITHM'
p1850
S'SCALABLE_VIDEO_DROPPING_CFDL_MFAC'
p1851
sS'SCHEDULER_MAX_WINDOW'
p1852
S'0'
p1853
sS'GET_TAIL'
p1854
S'GET_TAIL_OFF'
p1855
sS'VIDEO_TRACE_FILE'
p1856
g9
(g10
S'QString'
p1857
(V/home/admin1/scvid/Traces/287_TestFile_30fps_MGS_6EL.txt
p1858
tp1859
tp1860
Rp1861
sS'FIXED_PROP_DELAY'
p1862
S'FIXED_PROP_DELAY_OFF'
p1863
sS'NUM_WDM_ONU'
p1864
g9
(g10
S'QString'
p1865
(V0
p1866
tp1867
tp1868
Rp1869
sS'TRAFFIC_TYPE'
p1870
S'TRAFFIC_POISSON'
p1871
sS'GRANT_TRACE'
p1872
S'GRANT_TRACE_OFF'
p1873
sS'STARVE_THRESH'
p1874
g9
(g10
S'QString'
p1875
(V64
p1876
tp1877
tp1878
Rp1879
sS'VIDEO_RANDOM_START'
p1880
S'VIDEO_RANDOM_START_OFF'
p1881
sS'AVAIL_COST_WEIGHT'
p1882
g9
(g10
S'QString'
p1883
(V1.0
p1884
tp1885
tp1886
Rp1887
sS'TIME_SHIFT'
p1888
S'0.0'
p1889
sS'WDM_TYPE'
p1890
S'WDM_FIXED'
p1891
sS'NUM_HEAVY_ONU'
p1892
g9
(g10
S'QString'
p1893
(V0
p1894
tp1895
tp1896
Rp1897
sS'NUM_SS_STREAMS'
p1898
g9
(g10
S'QString'
p1899
(V32
p1900
tp1901
tp1902
Rp1903
sS'NUM_ONU'
p1904
g9
(g10
S'QString'
p1905
(V32
p1906
tp1907
tp1908
Rp1909
sS'VIDEO_TRAFFIC'
p1910
S'VIDEO_TRAFFIC_ON'
p1911
sS'FIXED_PROP_DELAY_VALUE'
p1912
g9
(g10
S'QString'
p1913
(V50e-6
p1914
tp1915
tp1916
Rp1917
sS'SIM_TRACE'
p1918
S'SIM_TRACE_OFF'
p1919
sS'SS_HURST_PARAM'
p1920
g9
(g10
S'QString'
p1921
(V0.75
p1922
tp1923
tp1924
Rp1925
sS'FRAME_RATE'
p1926
g9
(g10
S'QString'
p1927
(V30.0
p1928
tp1929
tp1930
Rp1931
sS'simID'
p1932
g9
(g10
S'QString'
p1933
(Vtest_0115
p1934
tp1935
tp1936
Rp1937
sssS'test_0114'
p1938
(dp1939
S'params'
p1940
(dp1941
S'SV_NUM_MA_VALUES'
p1942
g9
(g10
S'QString'
p1943
(V5
p1944
tp1945
tp1946
Rp1947
sS'NUM_PREFERRED_ONU'
p1948
g9
(g10
S'QString'
p1949
(V0
p1950
tp1951
tp1952
Rp1953
sS'PREDICTION_TYPE'
p1954
S'FFBI'
p1955
sS'SCHEDULER_SLOT_SIZE'
p1956
g9
(g10
S'QString'
p1957
(V64
p1958
tp1959
tp1960
Rp1961
sS'START_LAMBDA'
p1962
g9
(g10
S'QString'
p1963
(V1
p1964
tp1965
tp1966
Rp1967
sS'LOAD_INCR'
p1968
g9
(g10
S'QString'
p1969
(V0.1
p1970
tp1971
tp1972
Rp1973
sS'OLT_TYPE'
p1974
S'OLT_IPACT_PSF'
p1975
sS'SIM_TIME'
p1976
g9
(g10
S'QString'
p1977
(V300
p1978
tp1979
tp1980
Rp1981
sS'SV_DROP_SENSITIVITY'
p1982
g9
(g10
S'QString'
p1983
(V1.0
p1984
tp1985
tp1986
Rp1987
sS'MAX_GRANT_SIZE'
p1988
g9
(g10
S'QString'
p1989
(V156876
p1990
tp1991
tp1992
Rp1993
sS'MAX_PROP_DELAY'
p1994
g9
(g10
S'QString'
p1995
(V50e-6
p1996
tp1997
tp1998
Rp1999
sS'SCALABLE_VIDEO_TRAFFIC'
p2000
S'SCALABLE_VIDEO_ON'
p2001
sS'SV_MIN_BOUND'
p2002
g9
(g10
S'QString'
p2003
(V0.0005
p2004
tp2005
tp2006
Rp2007
sS'SV_MAX_BOUND'
p2008
g9
(g10
S'QString'
p2009
(V0.005
p2010
tp2011
tp2012
Rp2013
sS'FIXED_GRANT_SIZE'
p2014
g9
(g10
S'QString'
p2015
(V156876
p2016
tp2017
tp2018
Rp2019
sS'VIDEO_DBA_TYPE'
p2020
S'VIDEO_DBA_LIMITED_GATE'
p2021
sS'GUARD_TIME'
p2022
g9
(g10
S'QString'
p2023
(V1e-6
p2024
tp2025
tp2026
Rp2027
sS'TUNING_TIME'
p2028
g9
(g10
S'QString'
p2029
(V5e-3
p2030
tp2031
tp2032
Rp2033
sS'SIM_TRACE'
p2034
S'SIM_TRACE_OFF'
p2035
sS'LINK_SPEED'
p2036
g9
(g10
S'QString'
p2037
(V1e9
p2038
tp2039
tp2040
Rp2041
sS'END_LAMBDA'
p2042
g9
(g10
S'QString'
p2043
(V1
p2044
tp2045
tp2046
Rp2047
sS'VIDEO_TRAFFIC'
p2048
S'VIDEO_TRAFFIC_ON'
p2049
sS'SCHEDULER_NUM_SLOT'
p2050
g9
(g10
S'QString'
p2051
(V180
p2052
tp2053
tp2054
Rp2055
sS'SV_DROP_LAYER_THRESHOLD'
p2056
g9
(g10
S'QString'
p2057
(V4
p2058
tp2059
tp2060
Rp2061
sS'NUM_RUNS'
p2062
g9
(g10
S'QString'
p2063
(V1
p2064
tp2065
tp2066
Rp2067
sS'VIDEO_PREDICTION'
p2068
S'VIDEO_PREDICTION_OFF'
p2069
sS'HEAVY_LOAD'
p2070
g9
(g10
S'QString'
p2071
(V2
p2072
tp2073
tp2074
Rp2075
sS'NUM_LH_WDM_ONU'
p2076
g9
(g10
S'QString'
p2077
(V0
p2078
tp2079
tp2080
Rp2081
sS'NUM_UH_WDM_ONU'
p2082
g9
(g10
S'QString'
p2083
(V0
p2084
tp2085
tp2086
Rp2087
sS'DBA_TYPE'
p2088
S'DBA_LIMITED_GATE'
p2089
sS'SCALABLE_VIDEO_DROPPING_ALGORITHM'
p2090
S'SCALABLE_VIDEO_DROPPING_CFDL_MFAC'
p2091
sS'SCHEDULER_MAX_WINDOW'
p2092
S'0'
p2093
sS'GET_TAIL'
p2094
S'GET_TAIL_OFF'
p2095
sS'VIDEO_TRACE_FILE'
p2096
g9
(g10
S'QString'
p2097
(V/home/admin1/scvid/Traces/287_TestFile_30fps_MGS_6EL.txt
p2098
tp2099
tp2100
Rp2101
sS'FIXED_PROP_DELAY'
p2102
S'FIXED_PROP_DELAY_OFF'
p2103
sS'NUM_WDM_ONU'
p2104
g9
(g10
S'QString'
p2105
(V0
p2106
tp2107
tp2108
Rp2109
sS'TRAFFIC_TYPE'
p2110
S'TRAFFIC_POISSON'
p2111
sS'GRANT_TRACE'
p2112
S'GRANT_TRACE_OFF'
p2113
sS'STARVE_THRESH'
p2114
g9
(g10
S'QString'
p2115
(V64
p2116
tp2117
tp2118
Rp2119
sS'VIDEO_RANDOM_START'
p2120
S'VIDEO_RANDOM_START_OFF'
p2121
sS'AVAIL_COST_WEIGHT'
p2122
g9
(g10
S'QString'
p2123
(V1.0
p2124
tp2125
tp2126
Rp2127
sS'TIME_SHIFT'
p2128
S'0.0'
p2129
sS'WDM_TYPE'
p2130
S'WDM_FIXED'
p2131
sS'NUM_HEAVY_ONU'
p2132
g9
(g10
S'QString'
p2133
(V0
p2134
tp2135
tp2136
Rp2137
sS'NUM_SS_STREAMS'
p2138
g9
(g10
S'QString'
p2139
(V32
p2140
tp2141
tp2142
Rp2143
sS'NUM_ONU'
p2144
g9
(g10
S'QString'
p2145
(V32
p2146
tp2147
tp2148
Rp2149
sS'START_LOAD'
p2150
g9
(g10
S'QString'
p2151
(V0.1
p2152
tp2153
tp2154
Rp2155
sS'FIXED_PROP_DELAY_VALUE'
p2156
g9
(g10
S'QString'
p2157
(V50e-6
p2158
tp2159
tp2160
Rp2161
sS'END_LOAD'
p2162
g9
(g10
S'QString'
p2163
(V0.9
p2164
tp2165
tp2166
Rp2167
sS'SS_HURST_PARAM'
p2168
g9
(g10
S'QString'
p2169
(V0.75
p2170
tp2171
tp2172
Rp2173
sS'FRAME_RATE'
p2174
g9
(g10
S'QString'
p2175
(V30.0
p2176
tp2177
tp2178
Rp2179
sS'simID'
p2180
g9
(g10
S'QString'
p2181
(Vtest_0114
p2182
tp2183
tp2184
Rp2185
ssS'host'
p2186
S'localhost'
p2187
sS'pid'
p2188
I12873
ssS'test_0102'
p2189
(dp2190
g3
I20077
sg4
g5
sg6
(dp2191
g8
g9
(g10
S'QString'
p2192
(V5
p2193
tp2194
tp2195
Rp2196
sg16
g9
(g10
S'QString'
p2197
(V0
p2198
tp2199
tp2200
Rp2201
sg22
g23
sg24
g9
(g10
S'QString'
p2202
(V64
p2203
tp2204
tp2205
Rp2206
sg30
g9
(g10
S'QString'
p2207
(V1
p2208
tp2209
tp2210
Rp2211
sg42
g9
(g10
S'QString'
p2212
(V0.1
p2213
tp2214
tp2215
Rp2216
sg48
g49
sg50
g9
(g10
S'QString'
p2217
(V300
p2218
tp2219
tp2220
Rp2221
sg164
g165
sg74
g75
sg68
g9
(g10
S'QString'
p2222
(V50e-6
p2223
tp2224
tp2225
Rp2226
sg62
g9
(g10
S'QString'
p2227
(V156876
p2228
tp2229
tp2230
Rp2231
sg76
g9
(g10
S'QString'
p2232
(V0.0005
p2233
tp2234
tp2235
Rp2236
sg82
g9
(g10
S'QString'
p2237
(V0.005
p2238
tp2239
tp2240
Rp2241
sg88
g9
(g10
S'QString'
p2242
(V156876
p2243
tp2244
tp2245
Rp2246
sg94
g95
sg96
g9
(g10
S'QString'
p2247
(V1e-6
p2248
tp2249
tp2250
Rp2251
sg102
g9
(g10
S'QString'
p2252
(V5e-3
p2253
tp2254
tp2255
Rp2256
sg234
g235
sg114
g9
(g10
S'QString'
p2257
(V1e9
p2258
tp2259
tp2260
Rp2261
sg120
g9
(g10
S'QString'
p2262
(V1
p2263
tp2264
tp2265
Rp2266
sg226
g227
sg126
g9
(g10
S'QString'
p2267
(V180
p2268
tp2269
tp2270
Rp2271
sg132
g9
(g10
S'QString'
p2272
(V4
p2273
tp2274
tp2275
Rp2276
sg138
g9
(g10
S'QString'
p2277
(V1
p2278
tp2279
tp2280
Rp2281
sg144
g145
sg146
g9
(g10
S'QString'
p2282
(V2
p2283
tp2284
tp2285
Rp2286
sg152
g9
(g10
S'QString'
p2287
(V0
p2288
tp2289
tp2290
Rp2291
sg158
g9
(g10
S'QString'
p2292
(V0
p2293
tp2294
tp2295
Rp2296
sg166
g167
sg168
g169
sg170
g171
sg172
g9
(g10
S'QString'
p2297
(V/home/admin1/scvid/Traces/AA_TestFile_30fps_MGS_6EL.txt
p2298
tp2299
tp2300
Rp2301
sg178
g179
sg180
g9
(g10
S'QString'
p2302
(V0
p2303
tp2304
tp2305
Rp2306
sg186
g187
sg188
g189
sg190
g9
(g10
S'QString'
p2307
(V64
p2308
tp2309
tp2310
Rp2311
sg196
g197
sg198
g9
(g10
S'QString'
p2312
(V1.0
p2313
tp2314
tp2315
Rp2316
sg204
g205
sg206
g207
sg56
g9
(g10
S'QString'
p2317
(V1.0
p2318
tp2319
tp2320
Rp2321
sg208
g9
(g10
S'QString'
p2322
(V0
p2323
tp2324
tp2325
Rp2326
sg214
g9
(g10
S'QString'
p2327
(V32
p2328
tp2329
tp2330
Rp2331
sg220
g9
(g10
S'QString'
p2332
(V32
p2333
tp2334
tp2335
Rp2336
sg36
g9
(g10
S'QString'
p2337
(V0.1
p2338
tp2339
tp2340
Rp2341
sg228
g9
(g10
S'QString'
p2342
(V50e-6
p2343
tp2344
tp2345
Rp2346
sg108
g9
(g10
S'QString'
p2347
(V0.9
p2348
tp2349
tp2350
Rp2351
sg236
g9
(g10
S'QString'
p2352
(V0.75
p2353
tp2354
tp2355
Rp2356
sg242
g9
(g10
S'QString'
p2357
(V30.0
p2358
tp2359
tp2360
Rp2361
sg248
g9
(g10
S'QString'
p2362
(Vtest_0102
p2363
tp2364
tp2365
Rp2366
sssS'test_0116'
p2367
(dp2368
S'params'
p2369
(dp2370
S'SV_NUM_MA_VALUES'
p2371
g9
(g10
S'QString'
p2372
(V5
p2373
tp2374
tp2375
Rp2376
sS'NUM_PREFERRED_ONU'
p2377
g9
(g10
S'QString'
p2378
(V0
p2379
tp2380
tp2381
Rp2382
sS'PREDICTION_TYPE'
p2383
S'FFBI'
p2384
sS'SCHEDULER_SLOT_SIZE'
p2385
g9
(g10
S'QString'
p2386
(V64
p2387
tp2388
tp2389
Rp2390
sS'START_LAMBDA'
p2391
g9
(g10
S'QString'
p2392
(V1
p2393
tp2394
tp2395
Rp2396
sS'LOAD_INCR'
p2397
g9
(g10
S'QString'
p2398
(V0.1
p2399
tp2400
tp2401
Rp2402
sS'OLT_TYPE'
p2403
S'OLT_ONLINE_NASC'
p2404
sS'SIM_TIME'
p2405
g9
(g10
S'QString'
p2406
(V300
p2407
tp2408
tp2409
Rp2410
sS'SV_DROP_SENSITIVITY'
p2411
g9
(g10
S'QString'
p2412
(V1.0
p2413
tp2414
tp2415
Rp2416
sS'MAX_GRANT_SIZE'
p2417
g9
(g10
S'QString'
p2418
(V156876
p2419
tp2420
tp2421
Rp2422
sS'MAX_PROP_DELAY'
p2423
g9
(g10
S'QString'
p2424
(V50e-6
p2425
tp2426
tp2427
Rp2428
sS'SCALABLE_VIDEO_TRAFFIC'
p2429
S'SCALABLE_VIDEO_ON'
p2430
sS'SV_MIN_BOUND'
p2431
g9
(g10
S'QString'
p2432
(V0.0005
p2433
tp2434
tp2435
Rp2436
sS'SV_MAX_BOUND'
p2437
g9
(g10
S'QString'
p2438
(V0.005
p2439
tp2440
tp2441
Rp2442
sS'FIXED_GRANT_SIZE'
p2443
g9
(g10
S'QString'
p2444
(V156876
p2445
tp2446
tp2447
Rp2448
sS'VIDEO_DBA_TYPE'
p2449
S'VIDEO_DBA_LIMITED_GATE'
p2450
sS'GUARD_TIME'
p2451
g9
(g10
S'QString'
p2452
(V1e-6
p2453
tp2454
tp2455
Rp2456
sS'TUNING_TIME'
p2457
g9
(g10
S'QString'
p2458
(V5e-3
p2459
tp2460
tp2461
Rp2462
sS'SIM_TRACE'
p2463
S'SIM_TRACE_OFF'
p2464
sS'LINK_SPEED'
p2465
g9
(g10
S'QString'
p2466
(V1e9
p2467
tp2468
tp2469
Rp2470
sS'END_LAMBDA'
p2471
g9
(g10
S'QString'
p2472
(V1
p2473
tp2474
tp2475
Rp2476
sS'VIDEO_TRAFFIC'
p2477
S'VIDEO_TRAFFIC_ON'
p2478
sS'SCHEDULER_NUM_SLOT'
p2479
g9
(g10
S'QString'
p2480
(V180
p2481
tp2482
tp2483
Rp2484
sS'SV_DROP_LAYER_THRESHOLD'
p2485
g9
(g10
S'QString'
p2486
(V4
p2487
tp2488
tp2489
Rp2490
sS'NUM_RUNS'
p2491
g9
(g10
S'QString'
p2492
(V1
p2493
tp2494
tp2495
Rp2496
sS'VIDEO_PREDICTION'
p2497
S'VIDEO_PREDICTION_OFF'
p2498
sS'HEAVY_LOAD'
p2499
g9
(g10
S'QString'
p2500
(V2
p2501
tp2502
tp2503
Rp2504
sS'NUM_LH_WDM_ONU'
p2505
g9
(g10
S'QString'
p2506
(V0
p2507
tp2508
tp2509
Rp2510
sS'NUM_UH_WDM_ONU'
p2511
g9
(g10
S'QString'
p2512
(V0
p2513
tp2514
tp2515
Rp2516
sS'DBA_TYPE'
p2517
S'DBA_LIMITED_GATE'
p2518
sS'SCALABLE_VIDEO_DROPPING_ALGORITHM'
p2519
S'SCALABLE_VIDEO_DROPPING_CFDL_MFAC'
p2520
sS'SCHEDULER_MAX_WINDOW'
p2521
S'0'
p2522
sS'GET_TAIL'
p2523
S'GET_TAIL_OFF'
p2524
sS'VIDEO_TRACE_FILE'
p2525
g9
(g10
S'QString'
p2526
(V/home/admin1/scvid/Traces/287_TestFile_30fps_MGS_6EL.txt
p2527
tp2528
tp2529
Rp2530
sS'FIXED_PROP_DELAY'
p2531
S'FIXED_PROP_DELAY_OFF'
p2532
sS'NUM_WDM_ONU'
p2533
g9
(g10
S'QString'
p2534
(V0
p2535
tp2536
tp2537
Rp2538
sS'TRAFFIC_TYPE'
p2539
S'TRAFFIC_POISSON'
p2540
sS'GRANT_TRACE'
p2541
S'GRANT_TRACE_OFF'
p2542
sS'STARVE_THRESH'
p2543
g9
(g10
S'QString'
p2544
(V64
p2545
tp2546
tp2547
Rp2548
sS'VIDEO_RANDOM_START'
p2549
S'VIDEO_RANDOM_START_OFF'
p2550
sS'AVAIL_COST_WEIGHT'
p2551
g9
(g10
S'QString'
p2552
(V1.0
p2553
tp2554
tp2555
Rp2556
sS'TIME_SHIFT'
p2557
S'0.0'
p2558
sS'WDM_TYPE'
p2559
S'WDM_FIXED'
p2560
sS'NUM_HEAVY_ONU'
p2561
g9
(g10
S'QString'
p2562
(V0
p2563
tp2564
tp2565
Rp2566
sS'NUM_SS_STREAMS'
p2567
g9
(g10
S'QString'
p2568
(V32
p2569
tp2570
tp2571
Rp2572
sS'NUM_ONU'
p2573
g9
(g10
S'QString'
p2574
(V32
p2575
tp2576
tp2577
Rp2578
sS'START_LOAD'
p2579
g9
(g10
S'QString'
p2580
(V0.1
p2581
tp2582
tp2583
Rp2584
sS'FIXED_PROP_DELAY_VALUE'
p2585
g9
(g10
S'QString'
p2586
(V50e-6
p2587
tp2588
tp2589
Rp2590
sS'END_LOAD'
p2591
g9
(g10
S'QString'
p2592
(V0.9
p2593
tp2594
tp2595
Rp2596
sS'SS_HURST_PARAM'
p2597
g9
(g10
S'QString'
p2598
(V0.75
p2599
tp2600
tp2601
Rp2602
sS'FRAME_RATE'
p2603
g9
(g10
S'QString'
p2604
(V30.0
p2605
tp2606
tp2607
Rp2608
sS'simID'
p2609
g9
(g10
S'QString'
p2610
(Vtest_0116
p2611
tp2612
tp2613
Rp2614
ssS'host'
p2615
S'localhost'
p2616
sS'pid'
p2617
I14830
ssS'test_0100'
p2618
(dp2619
g3
I19509
sg4
g5
sg6
(dp2620
g8
g9
(g10
S'QString'
p2621
(V5
p2622
tp2623
tp2624
Rp2625
sg16
g9
(g10
S'QString'
p2626
(V0
p2627
tp2628
tp2629
Rp2630
sg22
g23
sg24
g9
(g10
S'QString'
p2631
(V64
p2632
tp2633
tp2634
Rp2635
sg30
g9
(g10
S'QString'
p2636
(V1
p2637
tp2638
tp2639
Rp2640
sg42
g9
(g10
S'QString'
p2641
(V0.1
p2642
tp2643
tp2644
Rp2645
sg48
g49
sg50
g9
(g10
S'QString'
p2646
(V300
p2647
tp2648
tp2649
Rp2650
sg164
g165
sg74
g75
sg68
g9
(g10
S'QString'
p2651
(V50e-6
p2652
tp2653
tp2654
Rp2655
sg62
g9
(g10
S'QString'
p2656
(V156876
p2657
tp2658
tp2659
Rp2660
sg76
g9
(g10
S'QString'
p2661
(V0.0005
p2662
tp2663
tp2664
Rp2665
sg82
g9
(g10
S'QString'
p2666
(V0.005
p2667
tp2668
tp2669
Rp2670
sg88
g9
(g10
S'QString'
p2671
(V156876
p2672
tp2673
tp2674
Rp2675
sg94
g95
sg96
g9
(g10
S'QString'
p2676
(V1e-6
p2677
tp2678
tp2679
Rp2680
sg102
g9
(g10
S'QString'
p2681
(V5e-3
p2682
tp2683
tp2684
Rp2685
sg234
g235
sg114
g9
(g10
S'QString'
p2686
(V1e9
p2687
tp2688
tp2689
Rp2690
sg120
g9
(g10
S'QString'
p2691
(V1
p2692
tp2693
tp2694
Rp2695
sg226
g227
sg126
g9
(g10
S'QString'
p2696
(V180
p2697
tp2698
tp2699
Rp2700
sg132
g9
(g10
S'QString'
p2701
(V4
p2702
tp2703
tp2704
Rp2705
sg138
g9
(g10
S'QString'
p2706
(V1
p2707
tp2708
tp2709
Rp2710
sg144
g145
sg146
g9
(g10
S'QString'
p2711
(V2
p2712
tp2713
tp2714
Rp2715
sg152
g9
(g10
S'QString'
p2716
(V0
p2717
tp2718
tp2719
Rp2720
sg158
g9
(g10
S'QString'
p2721
(V0
p2722
tp2723
tp2724
Rp2725
sg166
g167
sg168
g169
sg170
g171
sg172
g9
(g10
S'QString'
p2726
(V/home/admin1/scvid/Traces/AA_TestFile_30fps_MGS_6EL.txt
p2727
tp2728
tp2729
Rp2730
sg178
g179
sg180
g9
(g10
S'QString'
p2731
(V0
p2732
tp2733
tp2734
Rp2735
sg186
g187
sg188
g189
sg190
g9
(g10
S'QString'
p2736
(V64
p2737
tp2738
tp2739
Rp2740
sg196
g197
sg198
g9
(g10
S'QString'
p2741
(V1.0
p2742
tp2743
tp2744
Rp2745
sg204
g205
sg206
g207
sg56
g9
(g10
S'QString'
p2746
(V1.0
p2747
tp2748
tp2749
Rp2750
sg208
g9
(g10
S'QString'
p2751
(V0
p2752
tp2753
tp2754
Rp2755
sg214
g9
(g10
S'QString'
p2756
(V32
p2757
tp2758
tp2759
Rp2760
sg220
g9
(g10
S'QString'
p2761
(V32
p2762
tp2763
tp2764
Rp2765
sg36
g9
(g10
S'QString'
p2766
(V0.1
p2767
tp2768
tp2769
Rp2770
sg228
g9
(g10
S'QString'
p2771
(V50e-6
p2772
tp2773
tp2774
Rp2775
sg108
g9
(g10
S'QString'
p2776
(V0.9
p2777
tp2778
tp2779
Rp2780
sg236
g9
(g10
S'QString'
p2781
(V0.75
p2782
tp2783
tp2784
Rp2785
sg242
g9
(g10
S'QString'
p2786
(V30.0
p2787
tp2788
tp2789
Rp2790
sg248
g9
(g10
S'QString'
p2791
(Vtest_0100
p2792
tp2793
tp2794
Rp2795
sssS'test_0110'
p2796
(dp2797
S'params'
p2798
(dp2799
S'SV_NUM_MA_VALUES'
p2800
g9
(g10
S'QString'
p2801
(V5
p2802
tp2803
tp2804
Rp2805
sS'NUM_PREFERRED_ONU'
p2806
g9
(g10
S'QString'
p2807
(V0
p2808
tp2809
tp2810
Rp2811
sS'PREDICTION_TYPE'
p2812
S'FFBI'
p2813
sS'SCHEDULER_SLOT_SIZE'
p2814
g9
(g10
S'QString'
p2815
(V64
p2816
tp2817
tp2818
Rp2819
sS'START_LAMBDA'
p2820
g9
(g10
S'QString'
p2821
(V1
p2822
tp2823
tp2824
Rp2825
sS'LOAD_INCR'
p2826
g9
(g10
S'QString'
p2827
(V0.1
p2828
tp2829
tp2830
Rp2831
sS'OLT_TYPE'
p2832
S'OLT_IPACT_PSF'
p2833
sS'SIM_TIME'
p2834
g9
(g10
S'QString'
p2835
(V300
p2836
tp2837
tp2838
Rp2839
sS'SV_DROP_SENSITIVITY'
p2840
g9
(g10
S'QString'
p2841
(V1.0
p2842
tp2843
tp2844
Rp2845
sS'MAX_GRANT_SIZE'
p2846
g9
(g10
S'QString'
p2847
(V156876
p2848
tp2849
tp2850
Rp2851
sS'MAX_PROP_DELAY'
p2852
g9
(g10
S'QString'
p2853
(V50e-6
p2854
tp2855
tp2856
Rp2857
sS'SCALABLE_VIDEO_TRAFFIC'
p2858
S'SCALABLE_VIDEO_ON'
p2859
sS'SV_MIN_BOUND'
p2860
g9
(g10
S'QString'
p2861
(V0.0005
p2862
tp2863
tp2864
Rp2865
sS'SV_MAX_BOUND'
p2866
g9
(g10
S'QString'
p2867
(V0.005
p2868
tp2869
tp2870
Rp2871
sS'FIXED_GRANT_SIZE'
p2872
g9
(g10
S'QString'
p2873
(V156876
p2874
tp2875
tp2876
Rp2877
sS'VIDEO_DBA_TYPE'
p2878
S'VIDEO_DBA_LIMITED_GATE'
p2879
sS'GUARD_TIME'
p2880
g9
(g10
S'QString'
p2881
(V1e-6
p2882
tp2883
tp2884
Rp2885
sS'TUNING_TIME'
p2886
g9
(g10
S'QString'
p2887
(V5e-3
p2888
tp2889
tp2890
Rp2891
sS'SIM_TRACE'
p2892
S'SIM_TRACE_OFF'
p2893
sS'LINK_SPEED'
p2894
g9
(g10
S'QString'
p2895
(V1e9
p2896
tp2897
tp2898
Rp2899
sS'END_LAMBDA'
p2900
g9
(g10
S'QString'
p2901
(V1
p2902
tp2903
tp2904
Rp2905
sS'VIDEO_TRAFFIC'
p2906
S'VIDEO_TRAFFIC_ON'
p2907
sS'SCHEDULER_NUM_SLOT'
p2908
g9
(g10
S'QString'
p2909
(V180
p2910
tp2911
tp2912
Rp2913
sS'SV_DROP_LAYER_THRESHOLD'
p2914
g9
(g10
S'QString'
p2915
(V4
p2916
tp2917
tp2918
Rp2919
sS'NUM_RUNS'
p2920
g9
(g10
S'QString'
p2921
(V1
p2922
tp2923
tp2924
Rp2925
sS'VIDEO_PREDICTION'
p2926
S'VIDEO_PREDICTION_OFF'
p2927
sS'HEAVY_LOAD'
p2928
g9
(g10
S'QString'
p2929
(V2
p2930
tp2931
tp2932
Rp2933
sS'NUM_LH_WDM_ONU'
p2934
g9
(g10
S'QString'
p2935
(V0
p2936
tp2937
tp2938
Rp2939
sS'NUM_UH_WDM_ONU'
p2940
g9
(g10
S'QString'
p2941
(V0
p2942
tp2943
tp2944
Rp2945
sS'DBA_TYPE'
p2946
S'DBA_LIMITED_GATE'
p2947
sS'SCALABLE_VIDEO_DROPPING_ALGORITHM'
p2948
S'SCALABLE_VIDEO_DROPPING_CFDL_MFAC'
p2949
sS'SCHEDULER_MAX_WINDOW'
p2950
S'0'
p2951
sS'GET_TAIL'
p2952
S'GET_TAIL_OFF'
p2953
sS'VIDEO_TRACE_FILE'
p2954
g9
(g10
S'QString'
p2955
(V/home/admin1/scvid/Traces/287_TestFile_30fps_MGS_6EL.txt
p2956
tp2957
tp2958
Rp2959
sS'FIXED_PROP_DELAY'
p2960
S'FIXED_PROP_DELAY_OFF'
p2961
sS'NUM_WDM_ONU'
p2962
g9
(g10
S'QString'
p2963
(V0
p2964
tp2965
tp2966
Rp2967
sS'TRAFFIC_TYPE'
p2968
S'TRAFFIC_POISSON'
p2969
sS'GRANT_TRACE'
p2970
S'GRANT_TRACE_OFF'
p2971
sS'STARVE_THRESH'
p2972
g9
(g10
S'QString'
p2973
(V64
p2974
tp2975
tp2976
Rp2977
sS'VIDEO_RANDOM_START'
p2978
S'VIDEO_RANDOM_START_OFF'
p2979
sS'AVAIL_COST_WEIGHT'
p2980
g9
(g10
S'QString'
p2981
(V1.0
p2982
tp2983
tp2984
Rp2985
sS'TIME_SHIFT'
p2986
S'0.0'
p2987
sS'WDM_TYPE'
p2988
S'WDM_FIXED'
p2989
sS'NUM_HEAVY_ONU'
p2990
g9
(g10
S'QString'
p2991
(V0
p2992
tp2993
tp2994
Rp2995
sS'NUM_SS_STREAMS'
p2996
g9
(g10
S'QString'
p2997
(V32
p2998
tp2999
tp3000
Rp3001
sS'NUM_ONU'
p3002
g9
(g10
S'QString'
p3003
(V32
p3004
tp3005
tp3006
Rp3007
sS'START_LOAD'
p3008
g9
(g10
S'QString'
p3009
(V0.1
p3010
tp3011
tp3012
Rp3013
sS'FIXED_PROP_DELAY_VALUE'
p3014
g9
(g10
S'QString'
p3015
(V50e-6
p3016
tp3017
tp3018
Rp3019
sS'END_LOAD'
p3020
g9
(g10
S'QString'
p3021
(V0.9
p3022
tp3023
tp3024
Rp3025
sS'SS_HURST_PARAM'
p3026
g9
(g10
S'QString'
p3027
(V0.75
p3028
tp3029
tp3030
Rp3031
sS'FRAME_RATE'
p3032
g9
(g10
S'QString'
p3033
(V30.0
p3034
tp3035
tp3036
Rp3037
sS'simID'
p3038
g9
(g10
S'QString'
p3039
(Vtest_0110
p3040
tp3041
tp3042
Rp3043
ssS'host'
p3044
S'localhost'
p3045
sS'pid'
p3046
I10723
ssS'test_0101'
p3047
(dp3048
g3
I20036
sg4
g5
sg6
(dp3049
g8
g9
(g10
S'QString'
p3050
(V5
p3051
tp3052
tp3053
Rp3054
sg16
g9
(g10
S'QString'
p3055
(V0
p3056
tp3057
tp3058
Rp3059
sg22
g23
sg24
g9
(g10
S'QString'
p3060
(V64
p3061
tp3062
tp3063
Rp3064
sg30
g9
(g10
S'QString'
p3065
(V1
p3066
tp3067
tp3068
Rp3069
sg36
g9
(g10
S'QString'
p3070
(V0.1
p3071
tp3072
tp3073
Rp3074
sg42
g9
(g10
S'QString'
p3075
(V0.1
p3076
tp3077
tp3078
Rp3079
sg48
g49
sg50
g9
(g10
S'QString'
p3080
(V300
p3081
tp3082
tp3083
Rp3084
sg56
g9
(g10
S'QString'
p3085
(V1.0
p3086
tp3087
tp3088
Rp3089
sg62
g9
(g10
S'QString'
p3090
(V156876
p3091
tp3092
tp3093
Rp3094
sg68
g9
(g10
S'QString'
p3095
(V50e-6
p3096
tp3097
tp3098
Rp3099
sg74
g75
sg76
g9
(g10
S'QString'
p3100
(V0.0005
p3101
tp3102
tp3103
Rp3104
sg82
g9
(g10
S'QString'
p3105
(V0.005
p3106
tp3107
tp3108
Rp3109
sg88
g9
(g10
S'QString'
p3110
(V156876
p3111
tp3112
tp3113
Rp3114
sg94
g95
sg96
g9
(g10
S'QString'
p3115
(V1e-6
p3116
tp3117
tp3118
Rp3119
sg102
g9
(g10
S'QString'
p3120
(V5e-3
p3121
tp3122
tp3123
Rp3124
sg108
g9
(g10
S'QString'
p3125
(V0.9
p3126
tp3127
tp3128
Rp3129
sg114
g9
(g10
S'QString'
p3130
(V1e9
p3131
tp3132
tp3133
Rp3134
sg120
g9
(g10
S'QString'
p3135
(V1
p3136
tp3137
tp3138
Rp3139
sg126
g9
(g10
S'QString'
p3140
(V180
p3141
tp3142
tp3143
Rp3144
sg132
g9
(g10
S'QString'
p3145
(V4
p3146
tp3147
tp3148
Rp3149
sg138
g9
(g10
S'QString'
p3150
(V1
p3151
tp3152
tp3153
Rp3154
sg144
g145
sg146
g9
(g10
S'QString'
p3155
(V2
p3156
tp3157
tp3158
Rp3159
sg152
g9
(g10
S'QString'
p3160
(V0
p3161
tp3162
tp3163
Rp3164
sg158
g9
(g10
S'QString'
p3165
(V0
p3166
tp3167
tp3168
Rp3169
sg164
g165
sg166
g167
sg168
g169
sg170
g171
sg172
g9
(g10
S'QString'
p3170
(V/home/admin1/scvid/Traces/AA_TestFile_30fps_MGS_6EL.txt
p3171
tp3172
tp3173
Rp3174
sg178
g179
sg180
g9
(g10
S'QString'
p3175
(V0
p3176
tp3177
tp3178
Rp3179
sg186
g187
sg188
g189
sg190
g9
(g10
S'QString'
p3180
(V64
p3181
tp3182
tp3183
Rp3184
sg196
g197
sg198
g9
(g10
S'QString'
p3185
(V1.0
p3186
tp3187
tp3188
Rp3189
sg204
g205
sg206
g207
sg208
g9
(g10
S'QString'
p3190
(V0
p3191
tp3192
tp3193
Rp3194
sg214
g9
(g10
S'QString'
p3195
(V32
p3196
tp3197
tp3198
Rp3199
sg220
g9
(g10
S'QString'
p3200
(V32
p3201
tp3202
tp3203
Rp3204
sg226
g227
sg228
g9
(g10
S'QString'
p3205
(V50e-6
p3206
tp3207
tp3208
Rp3209
sg234
g235
sg236
g9
(g10
S'QString'
p3210
(V0.75
p3211
tp3212
tp3213
Rp3214
sg242
g9
(g10
S'QString'
p3215
(V30.0
p3216
tp3217
tp3218
Rp3219
sg248
g9
(g10
S'QString'
p3220
(Vtest_0101
p3221
tp3222
tp3223
Rp3224
sssS'test_0112'
p3225
(dp3226
S'params'
p3227
(dp3228
S'SV_NUM_MA_VALUES'
p3229
g9
(g10
S'QString'
p3230
(V5
p3231
tp3232
tp3233
Rp3234
sS'NUM_PREFERRED_ONU'
p3235
g9
(g10
S'QString'
p3236
(V0
p3237
tp3238
tp3239
Rp3240
sS'PREDICTION_TYPE'
p3241
S'FFBI'
p3242
sS'SCHEDULER_SLOT_SIZE'
p3243
g9
(g10
S'QString'
p3244
(V64
p3245
tp3246
tp3247
Rp3248
sS'START_LAMBDA'
p3249
g9
(g10
S'QString'
p3250
(V1
p3251
tp3252
tp3253
Rp3254
sS'LOAD_INCR'
p3255
g9
(g10
S'QString'
p3256
(V0.1
p3257
tp3258
tp3259
Rp3260
sS'OLT_TYPE'
p3261
S'OLT_IPACT_PSF'
p3262
sS'SIM_TIME'
p3263
g9
(g10
S'QString'
p3264
(V300
p3265
tp3266
tp3267
Rp3268
sS'SV_DROP_SENSITIVITY'
p3269
g9
(g10
S'QString'
p3270
(V1.0
p3271
tp3272
tp3273
Rp3274
sS'MAX_GRANT_SIZE'
p3275
g9
(g10
S'QString'
p3276
(V156876
p3277
tp3278
tp3279
Rp3280
sS'MAX_PROP_DELAY'
p3281
g9
(g10
S'QString'
p3282
(V50e-6
p3283
tp3284
tp3285
Rp3286
sS'SCALABLE_VIDEO_TRAFFIC'
p3287
S'SCALABLE_VIDEO_ON'
p3288
sS'SV_MIN_BOUND'
p3289
g9
(g10
S'QString'
p3290
(V0.0005
p3291
tp3292
tp3293
Rp3294
sS'SV_MAX_BOUND'
p3295
g9
(g10
S'QString'
p3296
(V0.005
p3297
tp3298
tp3299
Rp3300
sS'FIXED_GRANT_SIZE'
p3301
g9
(g10
S'QString'
p3302
(V156876
p3303
tp3304
tp3305
Rp3306
sS'VIDEO_DBA_TYPE'
p3307
S'VIDEO_DBA_LIMITED_GATE'
p3308
sS'GUARD_TIME'
p3309
g9
(g10
S'QString'
p3310
(V1e-6
p3311
tp3312
tp3313
Rp3314
sS'TUNING_TIME'
p3315
g9
(g10
S'QString'
p3316
(V5e-3
p3317
tp3318
tp3319
Rp3320
sS'SIM_TRACE'
p3321
S'SIM_TRACE_OFF'
p3322
sS'LINK_SPEED'
p3323
g9
(g10
S'QString'
p3324
(V1e9
p3325
tp3326
tp3327
Rp3328
sS'END_LAMBDA'
p3329
g9
(g10
S'QString'
p3330
(V1
p3331
tp3332
tp3333
Rp3334
sS'VIDEO_TRAFFIC'
p3335
S'VIDEO_TRAFFIC_ON'
p3336
sS'SCHEDULER_NUM_SLOT'
p3337
g9
(g10
S'QString'
p3338
(V180
p3339
tp3340
tp3341
Rp3342
sS'SV_DROP_LAYER_THRESHOLD'
p3343
g9
(g10
S'QString'
p3344
(V4
p3345
tp3346
tp3347
Rp3348
sS'NUM_RUNS'
p3349
g9
(g10
S'QString'
p3350
(V1
p3351
tp3352
tp3353
Rp3354
sS'VIDEO_PREDICTION'
p3355
S'VIDEO_PREDICTION_OFF'
p3356
sS'HEAVY_LOAD'
p3357
g9
(g10
S'QString'
p3358
(V2
p3359
tp3360
tp3361
Rp3362
sS'NUM_LH_WDM_ONU'
p3363
g9
(g10
S'QString'
p3364
(V0
p3365
tp3366
tp3367
Rp3368
sS'NUM_UH_WDM_ONU'
p3369
g9
(g10
S'QString'
p3370
(V0
p3371
tp3372
tp3373
Rp3374
sS'DBA_TYPE'
p3375
S'DBA_LIMITED_GATE'
p3376
sS'SCALABLE_VIDEO_DROPPING_ALGORITHM'
p3377
S'SCALABLE_VIDEO_DROPPING_CFDL_MFAC'
p3378
sS'SCHEDULER_MAX_WINDOW'
p3379
S'0'
p3380
sS'GET_TAIL'
p3381
S'GET_TAIL_OFF'
p3382
sS'VIDEO_TRACE_FILE'
p3383
g9
(g10
S'QString'
p3384
(V/home/admin1/scvid/Traces/287_TestFile_30fps_MGS_6EL.txt
p3385
tp3386
tp3387
Rp3388
sS'FIXED_PROP_DELAY'
p3389
S'FIXED_PROP_DELAY_OFF'
p3390
sS'NUM_WDM_ONU'
p3391
g9
(g10
S'QString'
p3392
(V0
p3393
tp3394
tp3395
Rp3396
sS'TRAFFIC_TYPE'
p3397
S'TRAFFIC_POISSON'
p3398
sS'GRANT_TRACE'
p3399
S'GRANT_TRACE_OFF'
p3400
sS'STARVE_THRESH'
p3401
g9
(g10
S'QString'
p3402
(V64
p3403
tp3404
tp3405
Rp3406
sS'VIDEO_RANDOM_START'
p3407
S'VIDEO_RANDOM_START_OFF'
p3408
sS'AVAIL_COST_WEIGHT'
p3409
g9
(g10
S'QString'
p3410
(V1.0
p3411
tp3412
tp3413
Rp3414
sS'TIME_SHIFT'
p3415
S'0.0'
p3416
sS'WDM_TYPE'
p3417
S'WDM_FIXED'
p3418
sS'NUM_HEAVY_ONU'
p3419
g9
(g10
S'QString'
p3420
(V0
p3421
tp3422
tp3423
Rp3424
sS'NUM_SS_STREAMS'
p3425
g9
(g10
S'QString'
p3426
(V32
p3427
tp3428
tp3429
Rp3430
sS'NUM_ONU'
p3431
g9
(g10
S'QString'
p3432
(V32
p3433
tp3434
tp3435
Rp3436
sS'START_LOAD'
p3437
g9
(g10
S'QString'
p3438
(V0.1
p3439
tp3440
tp3441
Rp3442
sS'FIXED_PROP_DELAY_VALUE'
p3443
g9
(g10
S'QString'
p3444
(V50e-6
p3445
tp3446
tp3447
Rp3448
sS'END_LOAD'
p3449
g9
(g10
S'QString'
p3450
(V0.9
p3451
tp3452
tp3453
Rp3454
sS'SS_HURST_PARAM'
p3455
g9
(g10
S'QString'
p3456
(V0.75
p3457
tp3458
tp3459
Rp3460
sS'FRAME_RATE'
p3461
g9
(g10
S'QString'
p3462
(V30.0
p3463
tp3464
tp3465
Rp3466
sS'simID'
p3467
g9
(g10
S'QString'
p3468
(Vtest_0112
p3469
tp3470
tp3471
Rp3472
ssS'host'
p3473
S'localhost'
p3474
sS'pid'
p3475
I12152
ss.